(lp0
S'jpg/image_01577'
p1
aS'jpg/image_05419'
p2
aS'jpg/image_02200'
p3
aS'jpg/image_06853'
p4
aS'jpg/image_02498'
p5
aS'jpg/image_01143'
p6
aS'jpg/image_00511'
p7
aS'jpg/image_05007'
p8
aS'jpg/image_02370'
p9
aS'jpg/image_03500'
p10
aS'jpg/image_07885'
p11
aS'jpg/image_02508'
p12
aS'jpg/image_00148'
p13
aS'jpg/image_04367'
p14
aS'jpg/image_01991'
p15
aS'jpg/image_01587'
p16
aS'jpg/image_07381'
p17
aS'jpg/image_02785'
p18
aS'jpg/image_03934'
p19
aS'jpg/image_03560'
p20
aS'jpg/image_04502'
p21
aS'jpg/image_00568'
p22
aS'jpg/image_06116'
p23
aS'jpg/image_02052'
p24
aS'jpg/image_00720'
p25
aS'jpg/image_07718'
p26
aS'jpg/image_05437'
p27
aS'jpg/image_05263'
p28
aS'jpg/image_06041'
p29
aS'jpg/image_01516'
p30
aS'jpg/image_02622'
p31
aS'jpg/image_00225'
p32
aS'jpg/image_05318'
p33
aS'jpg/image_03641'
p34
aS'jpg/image_01328'
p35
aS'jpg/image_02126'
p36
aS'jpg/image_05518'
p37
aS'jpg/image_05998'
p38
aS'jpg/image_06903'
p39
aS'jpg/image_06128'
p40
aS'jpg/image_05240'
p41
aS'jpg/image_05238'
p42
aS'jpg/image_00843'
p43
aS'jpg/image_06206'
p44
aS'jpg/image_01173'
p45
aS'jpg/image_08073'
p46
aS'jpg/image_01829'
p47
aS'jpg/image_01608'
p48
aS'jpg/image_07829'
p49
aS'jpg/image_00382'
p50
aS'jpg/image_02188'
p51
aS'jpg/image_02262'
p52
aS'jpg/image_00277'
p53
aS'jpg/image_07930'
p54
aS'jpg/image_01913'
p55
aS'jpg/image_02686'
p56
aS'jpg/image_03036'
p57
aS'jpg/image_03250'
p58
aS'jpg/image_07155'
p59
aS'jpg/image_03193'
p60
aS'jpg/image_07073'
p61
aS'jpg/image_02285'
p62
aS'jpg/image_06212'
p63
aS'jpg/image_01403'
p64
aS'jpg/image_03407'
p65
aS'jpg/image_03471'
p66
aS'jpg/image_05929'
p67
aS'jpg/image_07562'
p68
aS'jpg/image_03429'
p69
aS'jpg/image_01377'
p70
aS'jpg/image_07537'
p71
aS'jpg/image_04791'
p72
aS'jpg/image_05715'
p73
aS'jpg/image_01996'
p74
aS'jpg/image_00952'
p75
aS'jpg/image_06823'
p76
aS'jpg/image_02173'
p77
aS'jpg/image_07431'
p78
aS'jpg/image_04880'
p79
aS'jpg/image_00829'
p80
aS'jpg/image_00667'
p81
aS'jpg/image_02463'
p82
aS'jpg/image_00287'
p83
aS'jpg/image_00401'
p84
aS'jpg/image_07058'
p85
aS'jpg/image_02558'
p86
aS'jpg/image_05319'
p87
aS'jpg/image_00569'
p88
aS'jpg/image_02714'
p89
aS'jpg/image_04103'
p90
aS'jpg/image_05295'
p91
aS'jpg/image_03814'
p92
aS'jpg/image_07811'
p93
aS'jpg/image_07678'
p94
aS'jpg/image_06459'
p95
aS'jpg/image_04109'
p96
aS'jpg/image_06802'
p97
aS'jpg/image_06337'
p98
aS'jpg/image_02127'
p99
aS'jpg/image_07362'
p100
aS'jpg/image_02539'
p101
aS'jpg/image_07300'
p102
aS'jpg/image_04989'
p103
aS'jpg/image_05361'
p104
aS'jpg/image_02000'
p105
aS'jpg/image_05999'
p106
aS'jpg/image_05899'
p107
aS'jpg/image_06715'
p108
aS'jpg/image_05005'
p109
aS'jpg/image_01942'
p110
aS'jpg/image_05275'
p111
aS'jpg/image_04505'
p112
aS'jpg/image_00059'
p113
aS'jpg/image_01733'
p114
aS'jpg/image_05358'
p115
aS'jpg/image_01330'
p116
aS'jpg/image_00362'
p117
aS'jpg/image_05718'
p118
aS'jpg/image_05860'
p119
aS'jpg/image_03695'
p120
aS'jpg/image_02772'
p121
aS'jpg/image_05513'
p122
aS'jpg/image_03768'
p123
aS'jpg/image_00749'
p124
aS'jpg/image_02117'
p125
aS'jpg/image_04647'
p126
aS'jpg/image_06948'
p127
aS'jpg/image_02303'
p128
aS'jpg/image_04568'
p129
aS'jpg/image_02284'
p130
aS'jpg/image_00217'
p131
aS'jpg/image_02691'
p132
aS'jpg/image_00828'
p133
aS'jpg/image_03622'
p134
aS'jpg/image_02500'
p135
aS'jpg/image_07264'
p136
aS'jpg/image_07626'
p137
aS'jpg/image_03953'
p138
aS'jpg/image_01774'
p139
aS'jpg/image_07253'
p140
aS'jpg/image_05544'
p141
aS'jpg/image_04332'
p142
aS'jpg/image_02978'
p143
aS'jpg/image_04779'
p144
aS'jpg/image_05389'
p145
aS'jpg/image_04550'
p146
aS'jpg/image_03214'
p147
aS'jpg/image_04431'
p148
aS'jpg/image_03212'
p149
aS'jpg/image_03974'
p150
aS'jpg/image_06817'
p151
aS'jpg/image_01737'
p152
aS'jpg/image_00836'
p153
aS'jpg/image_03498'
p154
aS'jpg/image_03608'
p155
aS'jpg/image_00786'
p156
aS'jpg/image_03581'
p157
aS'jpg/image_01798'
p158
aS'jpg/image_02344'
p159
aS'jpg/image_02745'
p160
aS'jpg/image_01407'
p161
aS'jpg/image_01551'
p162
aS'jpg/image_00345'
p163
aS'jpg/image_04095'
p164
aS'jpg/image_07131'
p165
aS'jpg/image_00770'
p166
aS'jpg/image_00869'
p167
aS'jpg/image_05454'
p168
aS'jpg/image_02757'
p169
aS'jpg/image_05882'
p170
aS'jpg/image_07148'
p171
aS'jpg/image_01393'
p172
aS'jpg/image_00236'
p173
aS'jpg/image_06714'
p174
aS'jpg/image_01252'
p175
aS'jpg/image_00993'
p176
aS'jpg/image_04414'
p177
aS'jpg/image_08009'
p178
aS'jpg/image_07326'
p179
aS'jpg/image_00578'
p180
aS'jpg/image_01674'
p181
aS'jpg/image_04106'
p182
aS'jpg/image_07816'
p183
aS'jpg/image_02870'
p184
aS'jpg/image_05586'
p185
aS'jpg/image_04803'
p186
aS'jpg/image_02926'
p187
aS'jpg/image_05859'
p188
aS'jpg/image_00581'
p189
aS'jpg/image_06031'
p190
aS'jpg/image_01282'
p191
aS'jpg/image_06883'
p192
aS'jpg/image_00034'
p193
aS'jpg/image_03623'
p194
aS'jpg/image_05736'
p195
aS'jpg/image_05366'
p196
aS'jpg/image_04752'
p197
aS'jpg/image_06702'
p198
aS'jpg/image_02125'
p199
aS'jpg/image_02694'
p200
aS'jpg/image_01909'
p201
aS'jpg/image_06462'
p202
aS'jpg/image_00562'
p203
aS'jpg/image_01496'
p204
aS'jpg/image_03704'
p205
aS'jpg/image_06097'
p206
aS'jpg/image_02023'
p207
aS'jpg/image_00763'
p208
aS'jpg/image_02131'
p209
aS'jpg/image_06025'
p210
aS'jpg/image_06535'
p211
aS'jpg/image_01420'
p212
aS'jpg/image_00229'
p213
aS'jpg/image_05483'
p214
aS'jpg/image_01351'
p215
aS'jpg/image_04231'
p216
aS'jpg/image_02108'
p217
aS'jpg/image_08158'
p218
aS'jpg/image_02121'
p219
aS'jpg/image_00552'
p220
aS'jpg/image_07353'
p221
aS'jpg/image_00013'
p222
aS'jpg/image_01585'
p223
aS'jpg/image_03580'
p224
aS'jpg/image_02049'
p225
aS'jpg/image_05254'
p226
aS'jpg/image_04976'
p227
aS'jpg/image_03948'
p228
aS'jpg/image_03612'
p229
aS'jpg/image_02081'
p230
aS'jpg/image_02932'
p231
aS'jpg/image_01810'
p232
aS'jpg/image_00027'
p233
aS'jpg/image_04720'
p234
aS'jpg/image_01450'
p235
aS'jpg/image_07234'
p236
aS'jpg/image_07621'
p237
aS'jpg/image_03480'
p238
aS'jpg/image_01582'
p239
aS'jpg/image_02779'
p240
aS'jpg/image_02157'
p241
aS'jpg/image_05508'
p242
aS'jpg/image_04369'
p243
aS'jpg/image_01012'
p244
aS'jpg/image_03721'
p245
aS'jpg/image_00663'
p246
aS'jpg/image_05306'
p247
aS'jpg/image_01673'
p248
aS'jpg/image_00831'
p249
aS'jpg/image_03644'
p250
aS'jpg/image_01658'
p251
aS'jpg/image_05624'
p252
aS'jpg/image_04333'
p253
aS'jpg/image_00629'
p254
aS'jpg/image_02677'
p255
aS'jpg/image_04176'
p256
aS'jpg/image_05399'
p257
aS'jpg/image_02964'
p258
aS'jpg/image_00482'
p259
aS'jpg/image_08047'
p260
aS'jpg/image_04883'
p261
aS'jpg/image_04869'
p262
aS'jpg/image_08155'
p263
aS'jpg/image_02504'
p264
aS'jpg/image_03092'
p265
aS'jpg/image_01526'
p266
aS'jpg/image_06250'
p267
aS'jpg/image_02466'
p268
aS'jpg/image_03975'
p269
aS'jpg/image_02238'
p270
aS'jpg/image_04207'
p271
aS'jpg/image_07010'
p272
aS'jpg/image_04413'
p273
aS'jpg/image_07443'
p274
aS'jpg/image_01211'
p275
aS'jpg/image_06860'
p276
aS'jpg/image_03075'
p277
aS'jpg/image_05068'
p278
aS'jpg/image_02471'
p279
aS'jpg/image_01584'
p280
aS'jpg/image_00141'
p281
aS'jpg/image_01681'
p282
aS'jpg/image_05617'
p283
aS'jpg/image_01518'
p284
aS'jpg/image_04448'
p285
aS'jpg/image_01421'
p286
aS'jpg/image_04370'
p287
aS'jpg/image_06894'
p288
aS'jpg/image_01188'
p289
aS'jpg/image_00267'
p290
aS'jpg/image_00197'
p291
aS'jpg/image_01475'
p292
aS'jpg/image_04184'
p293
aS'jpg/image_07342'
p294
aS'jpg/image_01559'
p295
aS'jpg/image_07788'
p296
aS'jpg/image_06712'
p297
aS'jpg/image_03027'
p298
aS'jpg/image_07408'
p299
aS'jpg/image_02526'
p300
aS'jpg/image_04149'
p301
aS'jpg/image_00751'
p302
aS'jpg/image_02404'
p303
aS'jpg/image_01190'
p304
aS'jpg/image_01419'
p305
aS'jpg/image_02601'
p306
aS'jpg/image_07519'
p307
aS'jpg/image_02726'
p308
aS'jpg/image_06141'
p309
aS'jpg/image_06532'
p310
aS'jpg/image_02778'
p311
aS'jpg/image_02793'
p312
aS'jpg/image_07723'
p313
aS'jpg/image_02862'
p314
aS'jpg/image_04163'
p315
aS'jpg/image_02980'
p316
aS'jpg/image_03970'
p317
aS'jpg/image_07140'
p318
aS'jpg/image_03734'
p319
aS'jpg/image_06567'
p320
aS'jpg/image_02782'
p321
aS'jpg/image_05814'
p322
aS'jpg/image_07682'
p323
aS'jpg/image_04345'
p324
aS'jpg/image_03625'
p325
aS'jpg/image_04715'
p326
aS'jpg/image_05227'
p327
aS'jpg/image_00312'
p328
aS'jpg/image_00628'
p329
aS'jpg/image_06884'
p330
aS'jpg/image_01814'
p331
aS'jpg/image_00892'
p332
aS'jpg/image_06912'
p333
aS'jpg/image_05887'
p334
aS'jpg/image_01234'
p335
aS'jpg/image_00200'
p336
aS'jpg/image_04338'
p337
aS'jpg/image_03672'
p338
aS'jpg/image_00653'
p339
aS'jpg/image_08117'
p340
aS'jpg/image_00573'
p341
aS'jpg/image_00053'
p342
aS'jpg/image_06448'
p343
aS'jpg/image_06199'
p344
aS'jpg/image_07401'
p345
aS'jpg/image_01780'
p346
aS'jpg/image_01747'
p347
aS'jpg/image_02168'
p348
aS'jpg/image_06269'
p349
aS'jpg/image_01623'
p350
aS'jpg/image_07303'
p351
aS'jpg/image_02099'
p352
aS'jpg/image_03929'
p353
aS'jpg/image_05988'
p354
aS'jpg/image_03189'
p355
aS'jpg/image_02881'
p356
aS'jpg/image_02252'
p357
aS'jpg/image_08040'
p358
aS'jpg/image_06871'
p359
aS'jpg/image_04788'
p360
aS'jpg/image_00365'
p361
aS'jpg/image_03752'
p362
aS'jpg/image_04348'
p363
aS'jpg/image_00188'
p364
aS'jpg/image_04382'
p365
aS'jpg/image_06930'
p366
aS'jpg/image_01347'
p367
aS'jpg/image_01999'
p368
aS'jpg/image_05329'
p369
aS'jpg/image_07786'
p370
aS'jpg/image_03379'
p371
aS'jpg/image_06315'
p372
aS'jpg/image_01961'
p373
aS'jpg/image_05805'
p374
aS'jpg/image_00916'
p375
aS'jpg/image_07569'
p376
aS'jpg/image_03047'
p377
aS'jpg/image_02082'
p378
aS'jpg/image_02412'
p379
aS'jpg/image_02207'
p380
aS'jpg/image_02102'
p381
aS'jpg/image_05467'
p382
aS'jpg/image_02769'
p383
aS'jpg/image_00761'
p384
aS'jpg/image_01549'
p385
aS'jpg/image_01462'
p386
aS'jpg/image_04820'
p387
aS'jpg/image_05449'
p388
aS'jpg/image_03821'
p389
aS'jpg/image_01491'
p390
aS'jpg/image_02136'
p391
aS'jpg/image_02903'
p392
aS'jpg/image_02225'
p393
aS'jpg/image_01074'
p394
aS'jpg/image_04622'
p395
aS'jpg/image_08068'
p396
aS'jpg/image_07920'
p397
aS'jpg/image_02024'
p398
aS'jpg/image_07790'
p399
aS'jpg/image_05880'
p400
aS'jpg/image_02924'
p401
aS'jpg/image_03273'
p402
aS'jpg/image_03954'
p403
aS'jpg/image_04530'
p404
aS'jpg/image_07158'
p405
aS'jpg/image_04856'
p406
aS'jpg/image_05441'
p407
aS'jpg/image_02509'
p408
aS'jpg/image_05270'
p409
aS'jpg/image_04862'
p410
aS'jpg/image_07071'
p411
aS'jpg/image_04746'
p412
aS'jpg/image_03930'
p413
aS'jpg/image_01931'
p414
aS'jpg/image_00042'
p415
aS'jpg/image_03775'
p416
aS'jpg/image_05400'
p417
aS'jpg/image_02237'
p418
aS'jpg/image_07724'
p419
aS'jpg/image_00519'
p420
aS'jpg/image_03544'
p421
aS'jpg/image_03066'
p422
aS'jpg/image_05620'
p423
aS'jpg/image_05521'
p424
aS'jpg/image_05369'
p425
aS'jpg/image_03490'
p426
aS'jpg/image_00414'
p427
aS'jpg/image_02149'
p428
aS'jpg/image_01225'
p429
aS'jpg/image_04743'
p430
aS'jpg/image_07531'
p431
aS'jpg/image_05968'
p432
aS'jpg/image_00218'
p433
aS'jpg/image_03525'
p434
aS'jpg/image_07985'
p435
aS'jpg/image_05722'
p436
aS'jpg/image_00178'
p437
aS'jpg/image_07938'
p438
aS'jpg/image_05593'
p439
aS'jpg/image_04595'
p440
aS'jpg/image_04804'
p441
aS'jpg/image_05961'
p442
aS'jpg/image_05990'
p443
aS'jpg/image_02441'
p444
aS'jpg/image_08036'
p445
aS'jpg/image_05243'
p446
aS'jpg/image_02263'
p447
aS'jpg/image_01917'
p448
aS'jpg/image_04892'
p449
aS'jpg/image_02413'
p450
aS'jpg/image_04366'
p451
aS'jpg/image_01990'
p452
aS'jpg/image_01660'
p453
aS'jpg/image_00661'
p454
aS'jpg/image_02354'
p455
aS'jpg/image_02047'
p456
aS'jpg/image_00733'
p457
aS'jpg/image_06261'
p458
aS'jpg/image_01530'
p459
aS'jpg/image_04485'
p460
aS'jpg/image_01907'
p461
aS'jpg/image_05920'
p462
aS'jpg/image_04587'
p463
aS'jpg/image_01547'
p464
aS'jpg/image_07555'
p465
aS'jpg/image_01954'
p466
aS'jpg/image_01105'
p467
aS'jpg/image_07868'
p468
aS'jpg/image_03079'
p469
aS'jpg/image_07841'
p470
aS'jpg/image_00528'
p471
aS'jpg/image_07485'
p472
aS'jpg/image_01556'
p473
aS'jpg/image_08157'
p474
aS'jpg/image_07355'
p475
aS'jpg/image_08138'
p476
aS'jpg/image_05971'
p477
aS'jpg/image_07070'
p478
aS'jpg/image_07549'
p479
aS'jpg/image_04356'
p480
aS'jpg/image_04545'
p481
aS'jpg/image_05538'
p482
aS'jpg/image_00433'
p483
aS'jpg/image_03259'
p484
aS'jpg/image_00195'
p485
aS'jpg/image_06004'
p486
aS'jpg/image_02009'
p487
aS'jpg/image_02035'
p488
aS'jpg/image_04495'
p489
aS'jpg/image_05417'
p490
aS'jpg/image_05343'
p491
aS'jpg/image_02679'
p492
aS'jpg/image_05248'
p493
aS'jpg/image_01495'
p494
aS'jpg/image_03937'
p495
aS'jpg/image_00413'
p496
aS'jpg/image_02371'
p497
aS'jpg/image_05698'
p498
aS'jpg/image_00454'
p499
aS'jpg/image_04653'
p500
aS'jpg/image_05309'
p501
aS'jpg/image_05832'
p502
aS'jpg/image_00991'
p503
aS'jpg/image_00219'
p504
aS'jpg/image_03086'
p505
aS'jpg/image_00900'
p506
aS'jpg/image_05888'
p507
aS'jpg/image_06944'
p508
aS'jpg/image_00759'
p509
aS'jpg/image_05494'
p510
aS'jpg/image_01321'
p511
aS'jpg/image_01605'
p512
aS'jpg/image_00543'
p513
aS'jpg/image_04749'
p514
aS'jpg/image_08074'
p515
aS'jpg/image_05713'
p516
aS'jpg/image_07639'
p517
aS'jpg/image_03955'
p518
aS'jpg/image_00445'
p519
aS'jpg/image_07049'
p520
aS'jpg/image_00405'
p521
aS'jpg/image_02925'
p522
aS'jpg/image_02065'
p523
aS'jpg/image_06260'
p524
aS'jpg/image_02715'
p525
aS'jpg/image_06857'
p526
aS'jpg/image_03597'
p527
aS'jpg/image_04692'
p528
aS'jpg/image_00960'
p529
aS'jpg/image_04658'
p530
aS'jpg/image_06493'
p531
aS'jpg/image_06236'
p532
aS'jpg/image_08180'
p533
aS'jpg/image_01714'
p534
aS'jpg/image_07538'
p535
aS'jpg/image_07905'
p536
aS'jpg/image_05323'
p537
aS'jpg/image_03767'
p538
aS'jpg/image_07894'
p539
aS'jpg/image_00810'
p540
aS'jpg/image_00260'
p541
aS'jpg/image_03037'
p542
aS'jpg/image_03925'
p543
aS'jpg/image_06796'
p544
aS'jpg/image_03215'
p545
aS'jpg/image_06813'
p546
aS'jpg/image_01008'
p547
aS'jpg/image_01849'
p548
aS'jpg/image_04158'
p549
aS'jpg/image_06276'
p550
aS'jpg/image_05416'
p551
aS'jpg/image_03457'
p552
aS'jpg/image_00875'
p553
aS'jpg/image_06345'
p554
aS'jpg/image_07640'
p555
aS'jpg/image_07856'
p556
aS'jpg/image_00762'
p557
aS'jpg/image_01657'
p558
aS'jpg/image_07590'
p559
aS'jpg/image_07328'
p560
aS'jpg/image_03564'
p561
aS'jpg/image_06803'
p562
aS'jpg/image_06549'
p563
aS'jpg/image_01571'
p564
aS'jpg/image_01300'
p565
aS'jpg/image_01102'
p566
aS'jpg/image_01567'
p567
aS'jpg/image_06731'
p568
aS'jpg/image_00953'
p569
aS'jpg/image_02987'
p570
aS'jpg/image_02846'
p571
aS'jpg/image_02007'
p572
aS'jpg/image_00792'
p573
aS'jpg/image_01157'
p574
aS'jpg/image_04165'
p575
aS'jpg/image_07434'
p576
aS'jpg/image_02655'
p577
aS'jpg/image_05889'
p578
aS'jpg/image_05493'
p579
aS'jpg/image_02821'
p580
aS'jpg/image_00615'
p581
aS'jpg/image_02882'
p582
aS'jpg/image_01320'
p583
aS'jpg/image_01357'
p584
aS'jpg/image_02395'
p585
aS'jpg/image_02306'
p586
aS'jpg/image_01694'
p587
aS'jpg/image_03197'
p588
aS'jpg/image_00385'
p589
aS'jpg/image_06845'
p590
aS'jpg/image_03050'
p591
aS'jpg/image_05545'
p592
aS'jpg/image_02628'
p593
aS'jpg/image_04107'
p594
aS'jpg/image_07821'
p595
aS'jpg/image_03683'
p596
aS'jpg/image_01871'
p597
aS'jpg/image_05316'
p598
aS'jpg/image_08156'
p599
aS'jpg/image_01715'
p600
aS'jpg/image_02695'
p601
aS'jpg/image_01636'
p602
aS'jpg/image_05871'
p603
aS'jpg/image_01546'
p604
aS'jpg/image_06529'
p605
aS'jpg/image_04094'
p606
aS'jpg/image_04224'
p607
aS'jpg/image_08181'
p608
aS'jpg/image_02519'
p609
aS'jpg/image_01180'
p610
aS'jpg/image_07835'
p611
aS'jpg/image_02979'
p612
aS'jpg/image_02501'
p613
aS'jpg/image_07539'
p614
aS'jpg/image_02220'
p615
aS'jpg/image_00101'
p616
aS'jpg/image_06965'
p617
aS'jpg/image_06222'
p618
aS'jpg/image_06105'
p619
aS'jpg/image_00608'
p620
aS'jpg/image_03755'
p621
aS'jpg/image_02302'
p622
aS'jpg/image_02658'
p623
aS'jpg/image_02692'
p624
aS'jpg/image_04993'
p625
aS'jpg/image_03636'
p626
aS'jpg/image_05308'
p627
aS'jpg/image_01592'
p628
aS'jpg/image_04153'
p629
aS'jpg/image_01675'
p630
aS'jpg/image_05390'
p631
aS'jpg/image_04695'
p632
aS'jpg/image_01097'
p633
aS'jpg/image_01304'
p634
aS'jpg/image_05622'
p635
aS'jpg/image_02409'
p636
aS'jpg/image_00610'
p637
aS'jpg/image_01392'
p638
aS'jpg/image_01204'
p639
aS'jpg/image_07670'
p640
aS'jpg/image_03673'
p641
aS'jpg/image_08013'
p642
aS'jpg/image_04757'
p643
aS'jpg/image_08153'
p644
aS'jpg/image_04987'
p645
aS'jpg/image_07540'
p646
aS'jpg/image_01233'
p647
aS'jpg/image_04677'
p648
aS'jpg/image_02239'
p649
aS'jpg/image_02484'
p650
aS'jpg/image_00827'
p651
aS'jpg/image_04593'
p652
aS'jpg/image_06266'
p653
aS'jpg/image_03645'
p654
aS'jpg/image_03190'
p655
aS'jpg/image_08034'
p656
aS'jpg/image_04578'
p657
aS'jpg/image_04573'
p658
aS'jpg/image_07940'
p659
aS'jpg/image_04170'
p660
aS'jpg/image_06318'
p661
aS'jpg/image_07606'
p662
aS'jpg/image_04400'
p663
aS'jpg/image_06201'
p664
aS'jpg/image_05531'
p665
aS'jpg/image_02960'
p666
aS'jpg/image_03270'
p667
aS'jpg/image_02280'
p668
aS'jpg/image_03692'
p669
aS'jpg/image_02051'
p670
aS'jpg/image_05854'
p671
aS'jpg/image_07797'
p672
aS'jpg/image_03510'
p673
aS'jpg/image_03499'
p674
aS'jpg/image_07146'
p675
aS'jpg/image_06818'
p676
aS'jpg/image_05084'
p677
aS'jpg/image_00111'
p678
aS'jpg/image_02594'
p679
aS'jpg/image_00909'
p680
aS'jpg/image_03810'
p681
aS'jpg/image_00411'
p682
aS'jpg/image_05520'
p683
aS'jpg/image_05075'
p684
aS'jpg/image_03082'
p685
aS'jpg/image_02880'
p686
aS'jpg/image_05911'
p687
aS'jpg/image_01449'
p688
aS'jpg/image_07235'
p689
aS'jpg/image_06561'
p690
aS'jpg/image_05806'
p691
aS'jpg/image_02950'
p692
aS'jpg/image_03048'
p693
aS'jpg/image_00465'
p694
aS'jpg/image_00729'
p695
aS'jpg/image_03412'
p696
aS'jpg/image_01062'
p697
aS'jpg/image_02078'
p698
aS'jpg/image_01412'
p699
aS'jpg/image_05367'
p700
aS'jpg/image_03663'
p701
aS'jpg/image_00514'
p702
aS'jpg/image_07126'
p703
aS'jpg/image_00248'
p704
aS'jpg/image_06463'
p705
aS'jpg/image_02119'
p706
aS'jpg/image_06713'
p707
aS'jpg/image_01045'
p708
aS'jpg/image_02820'
p709
aS'jpg/image_00171'
p710
aS'jpg/image_02676'
p711
aS'jpg/image_07568'
p712
aS'jpg/image_05253'
p713
aS'jpg/image_02750'
p714
aS'jpg/image_07078'
p715
aS'jpg/image_07733'
p716
aS'jpg/image_01451'
p717
aS'jpg/image_05398'
p718
aS'jpg/image_02894'
p719
aS'jpg/image_01408'
p720
aS'jpg/image_04105'
p721
aS'jpg/image_01497'
p722
aS'jpg/image_00899'
p723
aS'jpg/image_06505'
p724
aS'jpg/image_00283'
p725
aS'jpg/image_06841'
p726
aS'jpg/image_07494'
p727
aS'jpg/image_03624'
p728
aS'jpg/image_06291'
p729
aS'jpg/image_06098'
p730
aS'jpg/image_01088'
p731
aS'jpg/image_07996'
p732
aS'jpg/image_01713'
p733
aS'jpg/image_02287'
p734
aS'jpg/image_04973'
p735
aS'jpg/image_05027'
p736
aS'jpg/image_07846'
p737
aS'jpg/image_06200'
p738
aS'jpg/image_06519'
p739
aS'jpg/image_02646'
p740
aS'jpg/image_08008'
p741
aS'jpg/image_05311'
p742
aS'jpg/image_01042'
p743
aS'jpg/image_08113'
p744
aS'jpg/image_05281'
p745
aS'jpg/image_00577'
p746
aS'jpg/image_06484'
p747
aS'jpg/image_01558'
p748
aS'jpg/image_01254'
p749
aS'jpg/image_06585'
p750
aS'jpg/image_06819'
p751
aS'jpg/image_00289'
p752
aS'jpg/image_06300'
p753
aS'jpg/image_00830'
p754
aS'jpg/image_04793'
p755
aS'jpg/image_04582'
p756
aS'jpg/image_02825'
p757
aS'jpg/image_03243'
p758
aS'jpg/image_03204'
p759
aS'jpg/image_02391'
p760
aS'jpg/image_05944'
p761
aS'jpg/image_05845'
p762
aS'jpg/image_01063'
p763
aS'jpg/image_06140'
p764
aS'jpg/image_01072'
p765
aS'jpg/image_03049'
p766
aS'jpg/image_03198'
p767
aS'jpg/image_03369'
p768
aS'jpg/image_03584'
p769
aS'jpg/image_07437'
p770
aS'jpg/image_07160'
p771
aS'jpg/image_02767'
p772
aS'jpg/image_07466'
p773
aS'jpg/image_02143'
p774
aS'jpg/image_04412'
p775
aS'jpg/image_02570'
p776
aS'jpg/image_02905'
p777
aS'jpg/image_01952'
p778
aS'jpg/image_06125'
p779
aS'jpg/image_07143'
p780
aS'jpg/image_08123'
p781
aS'jpg/image_01998'
p782
aS'jpg/image_05801'
p783
aS'jpg/image_07775'
p784
aS'jpg/image_08035'
p785
aS'jpg/image_06913'
p786
aS'jpg/image_03236'
p787
aS'jpg/image_05886'
p788
aS'jpg/image_01751'
p789
aS'jpg/image_05952'
p790
aS'jpg/image_03459'
p791
aS'jpg/image_00240'
p792
aS'jpg/image_07952'
p793
aS'jpg/image_00281'
p794
aS'jpg/image_04730'
p795
aS'jpg/image_00820'
p796
aS'jpg/image_02568'
p797
aS'jpg/image_06568'
p798
aS'jpg/image_07302'
p799
aS'jpg/image_05815'
p800
aS'jpg/image_04203'
p801
aS'jpg/image_03515'
p802
aS'jpg/image_04960'
p803
aS'jpg/image_03526'
p804
aS'jpg/image_00279'
p805
aS'jpg/image_00685'
p806
aS'jpg/image_03030'
p807
aS'jpg/image_01850'
p808
aS'jpg/image_00341'
p809
aS'jpg/image_02975'
p810
aS'jpg/image_01366'
p811
aS'jpg/image_07017'
p812
aS'jpg/image_03281'
p813
aS'jpg/image_01427'
p814
aS'jpg/image_01873'
p815
aS'jpg/image_03506'
p816
aS'jpg/image_01735'
p817
aS'jpg/image_06909'
p818
aS'jpg/image_03475'
p819
aS'jpg/image_07793'
p820
aS'jpg/image_00207'
p821
aS'jpg/image_04583'
p822
aS'jpg/image_04592'
p823
aS'jpg/image_03988'
p824
aS'jpg/image_03635'
p825
aS'jpg/image_07272'
p826
aS'jpg/image_01781'
p827
aS'jpg/image_01179'
p828
aS'jpg/image_01613'
p829
aS'jpg/image_07753'
p830
aS'jpg/image_07891'
p831
aS'jpg/image_05505'
p832
aS'jpg/image_08030'
p833
aS'jpg/image_04842'
p834
aS'jpg/image_01602'
p835
aS'jpg/image_02626'
p836
aS'jpg/image_02212'
p837
aS'jpg/image_02096'
p838
aS'jpg/image_03199'
p839
aS'jpg/image_03256'
p840
aS'jpg/image_03583'
p841
aS'jpg/image_02257'
p842
aS'jpg/image_02841'
p843
aS'jpg/image_07743'
p844
aS'jpg/image_00570'
p845
aS'jpg/image_01287'
p846
aS'jpg/image_05285'
p847
aS'jpg/image_04374'
p848
aS'jpg/image_07387'
p849
aS'jpg/image_04183'
p850
aS'jpg/image_00185'
p851
aS'jpg/image_04623'
p852
aS'jpg/image_06866'
p853
aS'jpg/image_02361'
p854
aS'jpg/image_01456'
p855
aS'jpg/image_07847'
p856
aS'jpg/image_01436'
p857
aS'jpg/image_00838'
p858
aS'jpg/image_01930'
p859
aS'jpg/image_05050'
p860
aS'jpg/image_02106'
p861
aS'jpg/image_01119'
p862
aS'jpg/image_02236'
p863
aS'jpg/image_06249'
p864
aS'jpg/image_01531'
p865
aS'jpg/image_00005'
p866
aS'jpg/image_08069'
p867
aS'jpg/image_07528'
p868
aS'jpg/image_06569'
p869
aS'jpg/image_06609'
p870
aS'jpg/image_00726'
p871
aS'jpg/image_04586'
p872
aS'jpg/image_08067'
p873
aS'jpg/image_01535'
p874
aS'jpg/image_02533'
p875
aS'jpg/image_03766'
p876
aS'jpg/image_02305'
p877
aS'jpg/image_02749'
p878
aS'jpg/image_02528'
p879
aS'jpg/image_05229'
p880
aS'jpg/image_07877'
p881
aS'jpg/image_05395'
p882
aS'jpg/image_00788'
p883
aS'jpg/image_03942'
p884
aS'jpg/image_03242'
p885
aS'jpg/image_05942'
p886
aS'jpg/image_02277'
p887
aS'jpg/image_00116'
p888
aS'jpg/image_00126'
p889
aS'jpg/image_02633'
p890
aS'jpg/image_03080'
p891
aS'jpg/image_01948'
p892
aS'jpg/image_01869'
p893
aS'jpg/image_00485'
p894
aS'jpg/image_03772'
p895
aS'jpg/image_07890'
p896
aS'jpg/image_00064'
p897
aS'jpg/image_04162'
p898
aS'jpg/image_00682'
p899
aS'jpg/image_04386'
p900
aS'jpg/image_06100'
p901
aS'jpg/image_02100'
p902
aS'jpg/image_02097'
p903
aS'jpg/image_05539'
p904
aS'jpg/image_06510'
p905
aS'jpg/image_06274'
p906
aS'jpg/image_07981'
p907
aS'jpg/image_08014'
p908
aS'jpg/image_06990'
p909
aS'jpg/image_05980'
p910
aS'jpg/image_01768'
p911
aS'jpg/image_02581'
p912
aS'jpg/image_06774'
p913
aS'jpg/image_04596'
p914
aS'jpg/image_08070'
p915
aS'jpg/image_02234'
p916
aS'jpg/image_05474'
p917
aS'jpg/image_01625'
p918
aS'jpg/image_01091'
p919
aS'jpg/image_04436'
p920
aS'jpg/image_00918'
p921
aS'jpg/image_05250'
p922
aS'jpg/image_04602'
p923
aS'jpg/image_03617'
p924
aS'jpg/image_04182'
p925
aS'jpg/image_01872'
p926
aS'jpg/image_00095'
p927
aS'jpg/image_03595'
p928
aS'jpg/image_00339'
p929
aS'jpg/image_00420'
p930
aS'jpg/image_03261'
p931
aS'jpg/image_03491'
p932
aS'jpg/image_06005'
p933
aS'jpg/image_01151'
p934
aS'jpg/image_04588'
p935
aS'jpg/image_00600'
p936
aS'jpg/image_02164'
p937
aS'jpg/image_04380'
p938
aS'jpg/image_07895'
p939
aS'jpg/image_02662'
p940
aS'jpg/image_05699'
p941
aS'jpg/image_07879'
p942
aS'jpg/image_07645'
p943
aS'jpg/image_06464'
p944
aS'jpg/image_00096'
p945
aS'jpg/image_03018'
p946
aS'jpg/image_07530'
p947
aS'jpg/image_02840'
p948
aS'jpg/image_04669'
p949
aS'jpg/image_06028'
p950
aS'jpg/image_02759'
p951
aS'jpg/image_02941'
p952
aS'jpg/image_05452'
p953
aS'jpg/image_00172'
p954
aS'jpg/image_00624'
p955
aS'jpg/image_06834'
p956
aS'jpg/image_05495'
p957
aS'jpg/image_00717'
p958
aS'jpg/image_04351'
p959
aS'jpg/image_04748'
p960
aS'jpg/image_00855'
p961
aS'jpg/image_00484'
p962
aS'jpg/image_02393'
p963
aS'jpg/image_01307'
p964
aS'jpg/image_07591'
p965
aS'jpg/image_07584'
p966
aS'jpg/image_01905'
p967
aS'jpg/image_06101'
p968
aS'jpg/image_06114'
p969
aS'jpg/image_03264'
p970
aS'jpg/image_03806'
p971
aS'jpg/image_01498'
p972
aS'jpg/image_00412'
p973
aS'jpg/image_06927'
p974
aS'jpg/image_04556'
p975
aS'jpg/image_05864'
p976
aS'jpg/image_01135'
p977
aS'jpg/image_00946'
p978
aS'jpg/image_01417'
p979
aS'jpg/image_01977'
p980
aS'jpg/image_01877'
p981
aS'jpg/image_02856'
p982
aS'jpg/image_01025'
p983
aS'jpg/image_02414'
p984
aS'jpg/image_04824'
p985
aS'jpg/image_05853'
p986
aS'jpg/image_01883'
p987
aS'jpg/image_00617'
p988
aS'jpg/image_01838'
p989
aS'jpg/image_01950'
p990
aS'jpg/image_04617'
p991
aS'jpg/image_07416'
p992
aS'jpg/image_01537'
p993
aS'jpg/image_01057'
p994
aS'jpg/image_00544'
p995
aS'jpg/image_03987'
p996
aS'jpg/image_04731'
p997
aS'jpg/image_05074'
p998
aS'jpg/image_03606'
p999
aS'jpg/image_00090'
p1000
aS'jpg/image_02271'
p1001
aS'jpg/image_07132'
p1002
aS'jpg/image_03952'
p1003
aS'jpg/image_01770'
p1004
aS'jpg/image_04564'
p1005
aS'jpg/image_05040'
p1006
aS'jpg/image_04209'
p1007
aS'jpg/image_00228'
p1008
aS'jpg/image_06138'
p1009
aS'jpg/image_02073'
p1010
aS'jpg/image_02034'
p1011
aS'jpg/image_01594'
p1012
aS'jpg/image_02172'
p1013
aS'jpg/image_01570'
p1014
aS'jpg/image_03463'
p1015
aS'jpg/image_02518'
p1016
aS'jpg/image_06557'
p1017
aS'jpg/image_01848'
p1018
aS'jpg/image_03826'
p1019
aS'jpg/image_01342'
p1020
aS'jpg/image_00306'
p1021
aS'jpg/image_02796'
p1022
aS'jpg/image_02554'
p1023
aS'jpg/image_06104'
p1024
aS'jpg/image_03423'
p1025
aS'jpg/image_03796'
p1026
aS'jpg/image_05216'
p1027
aS'jpg/image_05326'
p1028
aS'jpg/image_06220'
p1029
aS'jpg/image_08015'
p1030
aS'jpg/image_01515'
p1031
aS'jpg/image_08136'
p1032
aS'jpg/image_01298'
p1033
aS'jpg/image_03447'
p1034
aS'jpg/image_07482'
p1035
aS'jpg/image_04327'
p1036
aS'jpg/image_04683'
p1037
aS'jpg/image_02288'
p1038
aS'jpg/image_01695'
p1039
aS'jpg/image_03196'
p1040
aS'jpg/image_03222'
p1041
aS'jpg/image_03658'
p1042
aS'jpg/image_03807'
p1043
aS'jpg/image_02629'
p1044
aS'jpg/image_03816'
p1045
aS'jpg/image_03010'
p1046
aS'jpg/image_06943'
p1047
aS'jpg/image_07296'
p1048
aS'jpg/image_05917'
p1049
aS'jpg/image_06982'
p1050
aS'jpg/image_06238'
p1051
aS'jpg/image_07019'
p1052
aS'jpg/image_00331'
p1053
aS'jpg/image_01416'
p1054
aS'jpg/image_05939'
p1055
aS'jpg/image_01429'
p1056
aS'jpg/image_05600'
p1057
aS'jpg/image_01158'
p1058
aS'jpg/image_04489'
p1059
aS'jpg/image_04575'
p1060
aS'jpg/image_02858'
p1061
aS'jpg/image_01926'
p1062
aS'jpg/image_03029'
p1063
aS'jpg/image_07351'
p1064
aS'jpg/image_08065'
p1065
aS'jpg/image_06267'
p1066
aS'jpg/image_07551'
p1067
aS'jpg/image_00708'
p1068
aS'jpg/image_00093'
p1069
aS'jpg/image_03986'
p1070
aS'jpg/image_01857'
p1071
aS'jpg/image_02147'
p1072
aS'jpg/image_07385'
p1073
aS'jpg/image_00124'
p1074
aS'jpg/image_00649'
p1075
aS'jpg/image_02315'
p1076
aS'jpg/image_01964'
p1077
aS'jpg/image_05594'
p1078
aS'jpg/image_03057'
p1079
aS'jpg/image_06110'
p1080
aS'jpg/image_02770'
p1081
aS'jpg/image_08033'
p1082
aS'jpg/image_06042'
p1083
aS'jpg/image_07250'
p1084
aS'jpg/image_05834'
p1085
aS'jpg/image_00941'
p1086
aS'jpg/image_07382'
p1087
aS'jpg/image_00179'
p1088
aS'jpg/image_07612'
p1089
aS'jpg/image_07848'
p1090
aS'jpg/image_07063'
p1091
aS'jpg/image_02553'
p1092
aS'jpg/image_06727'
p1093
aS'jpg/image_02150'
p1094
aS'jpg/image_03827'
p1095
aS'jpg/image_02578'
p1096
aS'jpg/image_00077'
p1097
aS'jpg/image_06341'
p1098
aS'jpg/image_01413'
p1099
aS'jpg/image_07474'
p1100
aS'jpg/image_02485'
p1101
aS'jpg/image_04563'
p1102
aS'jpg/image_00477'
p1103
aS'jpg/image_05372'
p1104
aS'jpg/image_01356'
p1105
aS'jpg/image_05732'
p1106
aS'jpg/image_05014'
p1107
aS'jpg/image_02206'
p1108
aS'jpg/image_06791'
p1109
aS'jpg/image_04141'
p1110
aS'jpg/image_03730'
p1111
aS'jpg/image_01490'
p1112
aS'jpg/image_01951'
p1113
aS'jpg/image_00622'
p1114
aS'jpg/image_05424'
p1115
aS'jpg/image_02281'
p1116
aS'jpg/image_05067'
p1117
aS'jpg/image_07411'
p1118
aS'jpg/image_04660'
p1119
aS'jpg/image_06962'
p1120
aS'jpg/image_03377'
p1121
aS'jpg/image_00271'
p1122
aS'jpg/image_00018'
p1123
aS'jpg/image_06578'
p1124
aS'jpg/image_01159'
p1125
aS'jpg/image_01059'
p1126
aS'jpg/image_07384'
p1127
aS'jpg/image_07425'
p1128
aS'jpg/image_04363'
p1129
aS'jpg/image_00898'
p1130
aS'jpg/image_07081'
p1131
aS'jpg/image_06334'
p1132
aS'jpg/image_07318'
p1133
aS'jpg/image_07015'
p1134
aS'jpg/image_03387'
p1135
aS'jpg/image_00293'
p1136
aS'jpg/image_04694'
p1137
aS'jpg/image_02336'
p1138
aS'jpg/image_06133'
p1139
aS'jpg/image_04584'
p1140
aS'jpg/image_03979'
p1141
aS'jpg/image_03464'
p1142
aS'jpg/image_05421'
p1143
aS'jpg/image_06278'
p1144
aS'jpg/image_04459'
p1145
aS'jpg/image_01712'
p1146
aS'jpg/image_07275'
p1147
aS'jpg/image_05023'
p1148
aS'jpg/image_04858'
p1149
aS'jpg/image_02279'
p1150
aS'jpg/image_02940'
p1151
aS'jpg/image_00728'
p1152
aS'jpg/image_00326'
p1153
aS'jpg/image_03556'
p1154
aS'jpg/image_06695'
p1155
aS'jpg/image_03508'
p1156
aS'jpg/image_04392'
p1157
aS'jpg/image_05595'
p1158
aS'jpg/image_01897'
p1159
aS'jpg/image_02322'
p1160
aS'jpg/image_04212'
p1161
aS'jpg/image_06033'
p1162
aS'jpg/image_08185'
p1163
aS'jpg/image_00001'
p1164
aS'jpg/image_01362'
p1165
aS'jpg/image_05418'
p1166
aS'jpg/image_00441'
p1167
aS'jpg/image_00803'
p1168
aS'jpg/image_01826'
p1169
aS'jpg/image_01334'
p1170
aS'jpg/image_06527'
p1171
aS'jpg/image_01120'
p1172
aS'jpg/image_00182'
p1173
aS'jpg/image_06606'
p1174
aS'jpg/image_03723'
p1175
aS'jpg/image_04684'
p1176
aS'jpg/image_04861'
p1177
aS'jpg/image_02774'
p1178
aS'jpg/image_04712'
p1179
aS'jpg/image_01652'
p1180
aS'jpg/image_01880'
p1181
aS'jpg/image_08118'
p1182
aS'jpg/image_02184'
p1183
aS'jpg/image_02114'
p1184
aS'jpg/image_06290'
p1185
aS'jpg/image_06319'
p1186
aS'jpg/image_03671'
p1187
aS'jpg/image_04461'
p1188
aS'jpg/image_01534'
p1189
aS'jpg/image_00014'
p1190
aS'jpg/image_01856'
p1191
aS'jpg/image_07825'
p1192
aS'jpg/image_07147'
p1193
aS'jpg/image_01052'
p1194
aS'jpg/image_03980'
p1195
aS'jpg/image_00768'
p1196
aS'jpg/image_03709'
p1197
aS'jpg/image_04774'
p1198
aS'jpg/image_02503'
p1199
aS'jpg/image_03732'
p1200
aS'jpg/image_00699'
p1201
aS'jpg/image_01255'
p1202
aS'jpg/image_00896'
p1203
aS'jpg/image_05433'
p1204
aS'jpg/image_02534'
p1205
aS'jpg/image_06825'
p1206
aS'jpg/image_02005'
p1207
aS'jpg/image_06824'
p1208
aS'jpg/image_03804'
p1209
aS'jpg/image_05375'
p1210
aS'jpg/image_05979'
p1211
aS'jpg/image_06132'
p1212
aS'jpg/image_06475'
p1213
aS'jpg/image_01446'
p1214
aS'jpg/image_07897'
p1215
aS'jpg/image_06560'
p1216
aS'jpg/image_01278'
p1217
aS'jpg/image_01099'
p1218
aS'jpg/image_08051'
p1219
aS'jpg/image_01844'
p1220
aS'jpg/image_05697'
p1221
aS'jpg/image_04222'
p1222
aS'jpg/image_07547'
p1223
aS'jpg/image_08147'
p1224
aS'jpg/image_05046'
p1225
aS'jpg/image_00538'
p1226
aS'jpg/image_03585'
p1227
aS'jpg/image_08182'
p1228
aS'jpg/image_02641'
p1229
aS'jpg/image_01382'
p1230
aS'jpg/image_07859'
p1231
aS'jpg/image_02291'
p1232
aS'jpg/image_05728'
p1233
aS'jpg/image_06483'
p1234
aS'jpg/image_00212'
p1235
aS'jpg/image_01827'
p1236
aS'jpg/image_01524'
p1237
aS'jpg/image_06124'
p1238
aS'jpg/image_02449'
p1239
aS'jpg/image_05409'
p1240
aS'jpg/image_04962'
p1241
aS'jpg/image_01476'
p1242
aS'jpg/image_00241'
p1243
aS'jpg/image_07262'
p1244
aS'jpg/image_06940'
p1245
aS'jpg/image_02731'
p1246
aS'jpg/image_01034'
p1247
aS'jpg/image_07674'
p1248
aS'jpg/image_00902'
p1249
aS'jpg/image_05320'
p1250
aS'jpg/image_00336'
p1251
aS'jpg/image_00463'
p1252
aS'jpg/image_01655'
p1253
aS'jpg/image_04407'
p1254
aS'jpg/image_01970'
p1255
aS'jpg/image_02185'
p1256
aS'jpg/image_02198'
p1257
aS'jpg/image_03808'
p1258
aS'jpg/image_00238'
p1259
aS'jpg/image_02141'
p1260
aS'jpg/image_05514'
p1261
aS'jpg/image_00351'
p1262
aS'jpg/image_06037'
p1263
aS'jpg/image_02611'
p1264
aS'jpg/image_06701'
p1265
aS'jpg/image_02781'
p1266
aS'jpg/image_00437'
p1267
aS'jpg/image_00804'
p1268
aS'jpg/image_05812'
p1269
aS'jpg/image_02902'
p1270
aS'jpg/image_00167'
p1271
aS'jpg/image_03919'
p1272
aS'jpg/image_07914'
p1273
aS'jpg/image_05028'
p1274
aS'jpg/image_06922'
p1275
aS'jpg/image_03078'
p1276
aS'jpg/image_01508'
p1277
aS'jpg/image_06584'
p1278
aS'jpg/image_02004'
p1279
aS'jpg/image_00065'
p1280
aS'jpg/image_03989'
p1281
aS'jpg/image_02105'
p1282
aS'jpg/image_01989'
p1283
aS'jpg/image_06846'
p1284
aS'jpg/image_02532'
p1285
aS'jpg/image_07011'
p1286
aS'jpg/image_02216'
p1287
aS'jpg/image_06204'
p1288
aS'jpg/image_07060'
p1289
aS'jpg/image_01822'
p1290
aS'jpg/image_04832'
p1291
aS'jpg/image_04466'
p1292
aS'jpg/image_01447'
p1293
aS'jpg/image_01586'
p1294
aS'jpg/image_01162'
p1295
aS'jpg/image_03944'
p1296
aS'jpg/image_02074'
p1297
aS'jpg/image_06106'
p1298
aS'jpg/image_01073'
p1299
aS'jpg/image_00933'
p1300
aS'jpg/image_00557'
p1301
aS'jpg/image_05058'
p1302
aS'jpg/image_05943'
p1303
aS'jpg/image_03798'
p1304
aS'jpg/image_02637'
p1305
aS'jpg/image_00213'
p1306
aS'jpg/image_02540'
p1307
aS'jpg/image_06867'
p1308
aS'jpg/image_00554'
p1309
aS'jpg/image_00410'
p1310
aS'jpg/image_03371'
p1311
aS'jpg/image_00886'
p1312
aS'jpg/image_03701'
p1313
aS'jpg/image_01509'
p1314
aS'jpg/image_01437'
p1315
aS'jpg/image_02107'
p1316
aS'jpg/image_07475'
p1317
aS'jpg/image_07980'
p1318
aS'jpg/image_02440'
p1319
aS'jpg/image_02267'
p1320
aS'jpg/image_02703'
p1321
aS'jpg/image_07705'
p1322
aS'jpg/image_06010'
p1323
aS'jpg/image_05268'
p1324
aS'jpg/image_05717'
p1325
aS'jpg/image_02929'
p1326
aS'jpg/image_06501'
p1327
aS'jpg/image_02276'
p1328
aS'jpg/image_02808'
p1329
aS'jpg/image_05730'
p1330
aS'jpg/image_06286'
p1331
aS'jpg/image_04816'
p1332
aS'jpg/image_02823'
p1333
aS'jpg/image_00350'
p1334
aS'jpg/image_04742'
p1335
aS'jpg/image_03664'
p1336
aS'jpg/image_01520'
p1337
aS'jpg/image_06923'
p1338
aS'jpg/image_06932'
p1339
aS'jpg/image_02748'
p1340
aS'jpg/image_01212'
p1341
aS'jpg/image_00635'
p1342
aS'jpg/image_03486'
p1343
aS'jpg/image_05029'
p1344
aS'jpg/image_07840'
p1345
aS'jpg/image_04229'
p1346
aS'jpg/image_01923'
p1347
aS'jpg/image_00747'
p1348
aS'jpg/image_00079'
p1349
aS'jpg/image_01359'
p1350
aS'jpg/image_07295'
p1351
aS'jpg/image_08124'
p1352
aS'jpg/image_00571'
p1353
aS'jpg/image_02155'
p1354
aS'jpg/image_06203'
p1355
aS'jpg/image_04833'
p1356
aS'jpg/image_04822'
p1357
aS'jpg/image_06228'
p1358
aS'jpg/image_00032'
p1359
aS'jpg/image_03943'
p1360
aS'jpg/image_04635'
p1361
aS'jpg/image_01047'
p1362
aS'jpg/image_02191'
p1363
aS'jpg/image_07858'
p1364
aS'jpg/image_01327'
p1365
aS'jpg/image_07521'
p1366
aS'jpg/image_07005'
p1367
aS'jpg/image_07517'
p1368
aS'jpg/image_07913'
p1369
aS'jpg/image_05515'
p1370
aS'jpg/image_07428'
p1371
aS'jpg/image_00959'
p1372
aS'jpg/image_01411'
p1373
aS'jpg/image_01971'
p1374
aS'jpg/image_03402'
p1375
aS'jpg/image_01426'
p1376
aS'jpg/image_06776'
p1377
aS'jpg/image_01361'
p1378
aS'jpg/image_02360'
p1379
aS'jpg/image_00665'
p1380
aS'jpg/image_03700'
p1381
aS'jpg/image_00115'
p1382
aS'jpg/image_01767'
p1383
aS'jpg/image_04657'
p1384
aS'jpg/image_00880'
p1385
aS'jpg/image_00551'
p1386
aS'jpg/image_01624'
p1387
aS'jpg/image_00250'
p1388
aS'jpg/image_03021'
p1389
aS'jpg/image_01904'
p1390
aS'jpg/image_01148'
p1391
aS'jpg/image_05241'
p1392
aS'jpg/image_06926'
p1393
aS'jpg/image_06011'
p1394
aS'jpg/image_01503'
p1395
aS'jpg/image_04996'
p1396
aS'jpg/image_06045'
p1397
aS'jpg/image_04613'
p1398
aS'jpg/image_07608'
p1399
aS'jpg/image_06709'
p1400
aS'jpg/image_08002'
p1401
aS'jpg/image_02002'
p1402
aS'jpg/image_02134'
p1403
aS'jpg/image_03716'
p1404
aS'jpg/image_02586'
p1405
aS'jpg/image_07356'
p1406
aS'jpg/image_04806'
p1407
aS'jpg/image_04217'
p1408
aS'jpg/image_02682'
p1409
aS'jpg/image_03665'
p1410
aS'jpg/image_05256'
p1411
aS'jpg/image_07505'
p1412
aS'jpg/image_03956'
p1413
aS'jpg/image_01922'
p1414
aS'jpg/image_02255'
p1415
aS'jpg/image_01263'
p1416
aS'jpg/image_06029'
p1417
aS'jpg/image_02261'
p1418
aS'jpg/image_02813'
p1419
aS'jpg/image_02993'
p1420
aS'jpg/image_04603'
p1421
aS'jpg/image_05706'
p1422
aS'jpg/image_01555'
p1423
aS'jpg/image_05578'
p1424
aS'jpg/image_07371'
p1425
aS'jpg/image_07702'
p1426
aS'jpg/image_01303'
p1427
aS'jpg/image_02247'
p1428
aS'jpg/image_04228'
p1429
aS'jpg/image_03921'
p1430
aS'jpg/image_03211'
p1431
aS'jpg/image_04559'
p1432
aS'jpg/image_02203'
p1433
aS'jpg/image_03589'
p1434
aS'jpg/image_05797'
p1435
aS'jpg/image_01117'
p1436
aS'jpg/image_07757'
p1437
aS'jpg/image_03643'
p1438
aS'jpg/image_05575'
p1439
aS'jpg/image_00215'
p1440
aS'jpg/image_01040'
p1441
aS'jpg/image_00121'
p1442
aS'jpg/image_02160'
p1443
aS'jpg/image_06868'
p1444
aS'jpg/image_07520'
p1445
aS'jpg/image_07557'
p1446
aS'jpg/image_00595'
p1447
aS'jpg/image_07571'
p1448
aS'jpg/image_02190'
p1449
aS'jpg/image_06936'
p1450
aS'jpg/image_02177'
p1451
aS'jpg/image_03935'
p1452
aS'jpg/image_06784'
p1453
aS'jpg/image_06316'
p1454
aS'jpg/image_00028'
p1455
aS'jpg/image_01769'
p1456
aS'jpg/image_02847'
p1457
aS'jpg/image_05221'
p1458
aS'jpg/image_02711'
p1459
aS'jpg/image_04391'
p1460
aS'jpg/image_02289'
p1461
aS'jpg/image_04704'
p1462
aS'jpg/image_04341'
p1463
aS'jpg/image_05731'
p1464
aS'jpg/image_03460'
p1465
aS'jpg/image_05458'
p1466
aS'jpg/image_02516'
p1467
aS'jpg/image_06253'
p1468
aS'jpg/image_03594'
p1469
aS'jpg/image_00244'
p1470
aS'jpg/image_06928'
p1471
aS'jpg/image_00319'
p1472
aS'jpg/image_07780'
p1473
aS'jpg/image_05235'
p1474
aS'jpg/image_03245'
p1475
aS'jpg/image_07460'
p1476
aS'jpg/image_03205'
p1477
aS'jpg/image_03404'
p1478
aS'jpg/image_06499'
p1479
aS'jpg/image_01927'
p1480
aS'jpg/image_03260'
p1481
aS'jpg/image_00857'
p1482
aS'jpg/image_06221'
p1483
aS'jpg/image_01502'
p1484
aS'jpg/image_04773'
p1485
aS'jpg/image_04201'
p1486
aS'jpg/image_05438'
p1487
aS'jpg/image_00607'
p1488
aS'jpg/image_01150'
p1489
aS'jpg/image_00502'
p1490
aS'jpg/image_00058'
p1491
aS'jpg/image_02166'
p1492
aS'jpg/image_02901'
p1493
aS'jpg/image_04812'
p1494
aS'jpg/image_06517'
p1495
aS'jpg/image_07392'
p1496
aS'jpg/image_07075'
p1497
aS'jpg/image_05324'
p1498
aS'jpg/image_00232'
p1499
aS'jpg/image_04654'
p1500
aS'jpg/image_02992'
p1501
aS'jpg/image_01832'
p1502
aS'jpg/image_07504'
p1503
aS'jpg/image_04378'
p1504
aS'jpg/image_03042'
p1505
aS'jpg/image_01514'
p1506
aS'jpg/image_04599'
p1507
aS'jpg/image_00020'
p1508
aS'jpg/image_04239'
p1509
aS'jpg/image_07592'
p1510
aS'jpg/image_03409'
p1511
aS'jpg/image_07404'
p1512
aS'jpg/image_00910'
p1513
aS'jpg/image_01839'
p1514
aS'jpg/image_06951'
p1515
aS'jpg/image_05304'
p1516
aS'jpg/image_02513'
p1517
aS'jpg/image_05734'
p1518
aS'jpg/image_06444'
p1519
aS'jpg/image_07433'
p1520
aS'jpg/image_05919'
p1521
aS'jpg/image_04119'
p1522
aS'jpg/image_08059'
p1523
aS'jpg/image_03706'
p1524
aS'jpg/image_05340'
p1525
aS'jpg/image_00344'
p1526
aS'jpg/image_01902'
p1527
aS'jpg/image_03638'
p1528
aS'jpg/image_03068'
p1529
aS'jpg/image_00966'
p1530
aS'jpg/image_05921'
p1531
aS'jpg/image_03761'
p1532
aS'jpg/image_03936'
p1533
aS'jpg/image_06785'
p1534
aS'jpg/image_00404'
p1535
aS'jpg/image_01267'
p1536
aS'jpg/image_03370'
p1537
aS'jpg/image_06811'
p1538
aS'jpg/image_04113'
p1539
aS'jpg/image_00480'
p1540
aS'jpg/image_01297'
p1541
aS'jpg/image_01663'
p1542
aS'jpg/image_00525'
p1543
aS'jpg/image_04763'
p1544
aS'jpg/image_02311'
p1545
aS'jpg/image_00226'
p1546
aS'jpg/image_08012'
p1547
aS'jpg/image_02949'
p1548
aS'jpg/image_04166'
p1549
aS'jpg/image_04618'
p1550
aS'jpg/image_00394'
p1551
aS'jpg/image_02292'
p1552
aS'jpg/image_00922'
p1553
aS'jpg/image_02246'
p1554
aS'jpg/image_01744'
p1555
aS'jpg/image_03509'
p1556
aS'jpg/image_07249'
p1557
aS'jpg/image_01929'
p1558
aS'jpg/image_04508'
p1559
aS'jpg/image_01048'
p1560
aS'jpg/image_05613'
p1561
aS'jpg/image_04198'
p1562
aS'jpg/image_01064'
p1563
aS'jpg/image_07662'
p1564
aS'jpg/image_04860'
p1565
aS'jpg/image_05559'
p1566
aS'jpg/image_02914'
p1567
aS'jpg/image_00246'
p1568
aS'jpg/image_01536'
p1569
aS'jpg/image_03011'
p1570
aS'jpg/image_00990'
p1571
aS'jpg/image_05818'
p1572
aS'jpg/image_00719'
p1573
aS'jpg/image_03383'
p1574
aS'jpg/image_01022'
p1575
aS'jpg/image_01863'
p1576
aS'jpg/image_01308'
p1577
aS'jpg/image_05626'
p1578
aS'jpg/image_03043'
p1579
aS'jpg/image_05004'
p1580
aS'jpg/image_06340'
p1581
aS'jpg/image_04132'
p1582
aS'jpg/image_06210'
p1583
aS'jpg/image_00402'
p1584
aS'jpg/image_02110'
p1585
aS'jpg/image_00813'
p1586
aS'jpg/image_07251'
p1587
aS'jpg/image_07823'
p1588
aS'jpg/image_05958'
p1589
aS'jpg/image_01984'
p1590
aS'jpg/image_00774'
p1591
aS'jpg/image_03926'
p1592
aS'jpg/image_05497'
p1593
aS'jpg/image_02351'
p1594
aS'jpg/image_04346'
p1595
aS'jpg/image_07297'
p1596
aS'jpg/image_01541'
p1597
aS'jpg/image_06950'
p1598
aS'jpg/image_06717'
p1599
aS'jpg/image_01240'
p1600
aS'jpg/image_04418'
p1601
aS'jpg/image_04347'
p1602
aS'jpg/image_03817'
p1603
aS'jpg/image_00986'
p1604
aS'jpg/image_03395'
p1605
aS'jpg/image_01131'
p1606
aS'jpg/image_06706'
p1607
aS'jpg/image_07688'
p1608
aS'jpg/image_03386'
p1609
aS'jpg/image_00487'
p1610
aS'jpg/image_04360'
p1611
aS'jpg/image_05246'
p1612
aS'jpg/image_02868'
p1613
aS'jpg/image_02060'
p1614
aS'jpg/image_07347'
p1615
aS'jpg/image_01325'
p1616
aS'jpg/image_03760'
p1617
aS'jpg/image_00046'
p1618
aS'jpg/image_00123'
p1619
aS'jpg/image_02454'
p1620
aS'jpg/image_01296'
p1621
aS'jpg/image_05707'
p1622
aS'jpg/image_04140'
p1623
aS'jpg/image_01230'
p1624
aS'jpg/image_02278'
p1625
aS'jpg/image_07454'
p1626
aS'jpg/image_04619'
p1627
aS'jpg/image_01828'
p1628
aS'jpg/image_03620'
p1629
aS'jpg/image_03780'
p1630
aS'jpg/image_01322'
p1631
aS'jpg/image_07511'
p1632
aS'jpg/image_03981'
p1633
aS'jpg/image_00591'
p1634
aS'jpg/image_08137'
p1635
aS'jpg/image_01049'
p1636
aS'jpg/image_04641'
p1637
aS'jpg/image_08184'
p1638
aS'jpg/image_06847'
p1639
aS'jpg/image_07663'
p1640
aS'jpg/image_07672'
p1641
aS'jpg/image_01280'
p1642
aS'jpg/image_00865'
p1643
aS'jpg/image_07412'
p1644
aS'jpg/image_00889'
p1645
aS'jpg/image_06815'
p1646
aS'jpg/image_02497'
p1647
aS'jpg/image_05407'
p1648
aS'jpg/image_06571'
p1649
aS'jpg/image_06275'
p1650
aS'jpg/image_05576'
p1651
aS'jpg/image_05037'
p1652
aS'jpg/image_03941'
p1653
aS'jpg/image_00370'
p1654
aS'jpg/image_08141'
p1655
aS'jpg/image_02672'
p1656
aS'jpg/image_04097'
p1657
aS'jpg/image_01386'
p1658
aS'jpg/image_05796'
p1659
aS'jpg/image_02507'
p1660
aS'jpg/image_07989'
p1661
aS'jpg/image_04139'
p1662
aS'jpg/image_02350'
p1663
aS'jpg/image_01653'
p1664
aS'jpg/image_07151'
p1665
aS'jpg/image_03389'
p1666
aS'jpg/image_05608'
p1667
aS'jpg/image_05352'
p1668
aS'jpg/image_00368'
p1669
aS'jpg/image_01324'
p1670
aS'jpg/image_06496'
p1671
aS'jpg/image_04775'
p1672
aS'jpg/image_03823'
p1673
aS'jpg/image_02054'
p1674
aS'jpg/image_01731'
p1675
aS'jpg/image_01241'
p1676
aS'jpg/image_03476'
p1677
aS'jpg/image_02233'
p1678
aS'jpg/image_06924'
p1679
aS'jpg/image_07922'
p1680
aS'jpg/image_07566'
p1681
aS'jpg/image_00337'
p1682
aS'jpg/image_01215'
p1683
aS'jpg/image_02525'
p1684
aS'jpg/image_02867'
p1685
aS'jpg/image_02713'
p1686
aS'jpg/image_02346'
p1687
aS'jpg/image_07145'
p1688
aS'jpg/image_04555'
p1689
aS'jpg/image_07643'
p1690
aS'jpg/image_04709'
p1691
aS'jpg/image_01834'
p1692
aS'jpg/image_04426'
p1693
aS'jpg/image_06227'
p1694
aS'jpg/image_02906'
p1695
aS'jpg/image_01279'
p1696
aS'jpg/image_08083'
p1697
aS'jpg/image_05872'
p1698
aS'jpg/image_07779'
p1699
aS'jpg/image_06721'
p1700
aS'jpg/image_04393'
p1701
aS'jpg/image_01851'
p1702
aS'jpg/image_02971'
p1703
aS'jpg/image_02021'
p1704
aS'jpg/image_00873'
p1705
aS'jpg/image_01481'
p1706
aS'jpg/image_05291'
p1707
aS'jpg/image_05459'
p1708
aS'jpg/image_02522'
p1709
aS'jpg/image_00754'
p1710
aS'jpg/image_00035'
p1711
aS'jpg/image_03442'
p1712
aS'jpg/image_04759'
p1713
aS'jpg/image_03685'
p1714
aS'jpg/image_03045'
p1715
aS'jpg/image_02530'
p1716
aS'jpg/image_05403'
p1717
aS'jpg/image_00457'
p1718
aS'jpg/image_06570'
p1719
aS'jpg/image_06507'
p1720
aS'jpg/image_05502'
p1721
aS'jpg/image_00888'
p1722
aS'jpg/image_00863'
p1723
aS'jpg/image_08146'
p1724
aS'jpg/image_07487'
p1725
aS'jpg/image_02163'
p1726
aS'jpg/image_05591'
p1727
aS'jpg/image_01374'
p1728
aS'jpg/image_00297'
p1729
aS'jpg/image_05987'
p1730
aS'jpg/image_01004'
p1731
aS'jpg/image_01094'
p1732
aS'jpg/image_04666'
p1733
aS'jpg/image_07419'
p1734
aS'jpg/image_00561'
p1735
aS'jpg/image_02884'
p1736
aS'jpg/image_06881'
p1737
aS'jpg/image_01273'
p1738
aS'jpg/image_02798'
p1739
aS'jpg/image_01596'
p1740
aS'jpg/image_01458'
p1741
aS'jpg/image_07256'
p1742
aS'jpg/image_05247'
p1743
aS'jpg/image_05685'
p1744
aS'jpg/image_06917'
p1745
aS'jpg/image_07236'
p1746
aS'jpg/image_02681'
p1747
aS'jpg/image_04501'
p1748
aS'jpg/image_03390'
p1749
aS'jpg/image_04361'
p1750
aS'jpg/image_06497'
p1751
aS'jpg/image_02610'
p1752
aS'jpg/image_03824'
p1753
aS'jpg/image_06246'
p1754
aS'jpg/image_07719'
p1755
aS'jpg/image_01477'
p1756
aS'jpg/image_05916'
p1757
aS'jpg/image_03729'
p1758
aS'jpg/image_04445'
p1759
aS'jpg/image_08127'
p1760
aS'jpg/image_04809'
p1761
aS'jpg/image_01185'
p1762
aS'jpg/image_01422'
p1763
aS'jpg/image_07991'
p1764
aS'jpg/image_00505'
p1765
aS'jpg/image_01925'
p1766
aS'jpg/image_03688'
p1767
aS'jpg/image_00149'
p1768
aS'jpg/image_00328'
p1769
aS'jpg/image_05277'
p1770
aS'jpg/image_03642'
p1771
aS'jpg/image_06282'
p1772
aS'jpg/image_01127'
p1773
aS'jpg/image_01939'
p1774
aS'jpg/image_01739'
p1775
aS'jpg/image_05963'
p1776
aS'jpg/image_06205'
p1777
aS'jpg/image_06134'
p1778
aS'jpg/image_05475'
p1779
aS'jpg/image_00033'
p1780
aS'jpg/image_02780'
p1781
aS'jpg/image_08082'
p1782
aS'jpg/image_01647'
p1783
aS'jpg/image_06226'
p1784
aS'jpg/image_02668'
p1785
aS'jpg/image_02709'
p1786
aS'jpg/image_03945'
p1787
aS'jpg/image_04538'
p1788
aS'jpg/image_06118'
p1789
aS'jpg/image_07844'
p1790
aS'jpg/image_05290'
p1791
aS'jpg/image_03601'
p1792
aS'jpg/image_05803'
p1793
aS'jpg/image_02290'
p1794
aS'jpg/image_01202'
p1795
aS'jpg/image_08164'
p1796
aS'jpg/image_02913'
p1797
aS'jpg/image_05000'
p1798
aS'jpg/image_04364'
p1799
aS'jpg/image_00697'
p1800
aS'jpg/image_05948'
p1801
aS'jpg/image_06311'
p1802
aS'jpg/image_02592'
p1803
aS'jpg/image_02356'
p1804
aS'jpg/image_04499'
p1805
aS'jpg/image_05596'
p1806
aS'jpg/image_05303'
p1807
aS'jpg/image_04790'
p1808
aS'jpg/image_01005'
p1809
aS'jpg/image_01018'
p1810
aS'jpg/image_01066'
p1811
aS'jpg/image_02861'
p1812
aS'jpg/image_00381'
p1813
aS'jpg/image_02066'
p1814
aS'jpg/image_00515'
p1815
aS'jpg/image_05415'
p1816
aS'jpg/image_02877'
p1817
aS'jpg/image_02331'
p1818
aS'jpg/image_06794'
p1819
aS'jpg/image_02966'
p1820
aS'jpg/image_01375'
p1821
aS'jpg/image_07653'
p1822
aS'jpg/image_01791'
p1823
aS'jpg/image_05690'
p1824
aS'jpg/image_01601'
p1825
aS'jpg/image_07025'
p1826
aS'jpg/image_03076'
p1827
aS'jpg/image_04977'
p1828
aS'jpg/image_07946'
p1829
aS'jpg/image_01061'
p1830
aS'jpg/image_02199'
p1831
aS'jpg/image_04554'
p1832
aS'jpg/image_04196'
p1833
aS'jpg/image_01934'
p1834
aS'jpg/image_06143'
p1835
aS'jpg/image_07812'
p1836
aS'jpg/image_05799'
p1837
aS'jpg/image_02712'
p1838
aS'jpg/image_01184'
p1839
aS'jpg/image_00550'
p1840
aS'jpg/image_01085'
p1841
aS'jpg/image_04571'
p1842
aS'jpg/image_02477'
p1843
aS'jpg/image_02474'
p1844
aS'jpg/image_07751'
p1845
aS'jpg/image_07053'
p1846
aS'jpg/image_07978'
p1847
aS'jpg/image_02151'
p1848
aS'jpg/image_01096'
p1849
aS'jpg/image_00231'
p1850
aS'jpg/image_05542'
p1851
aS'jpg/image_07585'
p1852
aS'jpg/image_06452'
p1853
aS'jpg/image_06886'
p1854
aS'jpg/image_05279'
p1855
aS'jpg/image_06022'
p1856
aS'jpg/image_00925'
p1857
aS'jpg/image_07939'
p1858
aS'jpg/image_03016'
p1859
aS'jpg/image_03818'
p1860
aS'jpg/image_04484'
p1861
aS'jpg/image_04542'
p1862
aS'jpg/image_02003'
p1863
aS'jpg/image_03084'
p1864
aS'jpg/image_04634'
p1865
aS'jpg/image_05965'
p1866
aS'jpg/image_01441'
p1867
aS'jpg/image_01192'
p1868
aS'jpg/image_07161'
p1869
aS'jpg/image_03252'
p1870
aS'jpg/image_00593'
p1871
aS'jpg/image_02976'
p1872
aS'jpg/image_07284'
p1873
aS'jpg/image_01425'
p1874
aS'jpg/image_01067'
p1875
aS'jpg/image_06038'
p1876
aS'jpg/image_03800'
p1877
aS'jpg/image_07298'
p1878
aS'jpg/image_05294'
p1879
aS'jpg/image_00144'
p1880
aS'jpg/image_04727'
p1881
aS'jpg/image_01679'
p1882
aS'jpg/image_07735'
p1883
aS'jpg/image_02657'
p1884
aS'jpg/image_02717'
p1885
aS'jpg/image_03384'
p1886
aS'jpg/image_07625'
p1887
aS'jpg/image_00214'
p1888
aS'jpg/image_01664'
p1889
aS'jpg/image_06491'
p1890
aS'jpg/image_02758'
p1891
aS'jpg/image_02670'
p1892
aS'jpg/image_04340'
p1893
aS'jpg/image_02128'
p1894
aS'jpg/image_02330'
p1895
aS'jpg/image_07729'
p1896
aS'jpg/image_03696'
p1897
aS'jpg/image_04881'
p1898
aS'jpg/image_06472'
p1899
aS'jpg/image_08115'
p1900
aS'jpg/image_05807'
p1901
aS'jpg/image_02843'
p1902
aS'jpg/image_04552'
p1903
aS'jpg/image_07006'
p1904
aS'jpg/image_00471'
p1905
aS'jpg/image_06708'
p1906
aS'jpg/image_06840'
p1907
aS'jpg/image_06306'
p1908
aS'jpg/image_01976'
p1909
aS'jpg/image_02852'
p1910
aS'jpg/image_02410'
p1911
aS'jpg/image_06289'
p1912
aS'jpg/image_01892'
p1913
aS'jpg/image_05954'
p1914
aS'jpg/image_01470'
p1915
aS'jpg/image_02499'
p1916
aS'jpg/image_01987'
p1917
aS'jpg/image_08128'
p1918
aS'jpg/image_00634'
p1919
aS'jpg/image_07394'
p1920
aS'jpg/image_00347'
p1921
aS'jpg/image_00772'
p1922
aS'jpg/image_06453'
p1923
aS'jpg/image_02250'
p1924
aS'jpg/image_06442'
p1925
aS'jpg/image_08003'
p1926
aS'jpg/image_07542'
p1927
aS'jpg/image_01527'
p1928
aS'jpg/image_00354'
p1929
aS'jpg/image_01011'
p1930
aS'jpg/image_08020'
p1931
aS'jpg/image_04237'
p1932
aS'jpg/image_01141'
p1933
aS'jpg/image_04129'
p1934
aS'jpg/image_02442'
p1935
aS'jpg/image_02911'
p1936
aS'jpg/image_02729'
p1937
aS'jpg/image_03740'
p1938
aS'jpg/image_02787'
p1939
aS'jpg/image_04823'
p1940
aS'jpg/image_05302'
p1941
aS'jpg/image_02235'
p1942
aS'jpg/image_07851'
p1943
aS'jpg/image_02873'
p1944
aS'jpg/image_07498'
p1945
aS'jpg/image_04893'
p1946
aS'jpg/image_03964'
p1947
aS'jpg/image_00488'
p1948
aS'jpg/image_02397'
p1949
aS'jpg/image_06977'
p1950
aS'jpg/image_01554'
p1951
aS'jpg/image_00029'
p1952
aS'jpg/image_00841'
p1953
aS'jpg/image_05896'
p1954
aS'jpg/image_07874'
p1955
aS'jpg/image_04782'
p1956
aS'jpg/image_03758'
p1957
aS'jpg/image_05450'
p1958
aS'jpg/image_07758'
p1959
aS'jpg/image_02687'
p1960
aS'jpg/image_02606'
p1961
aS'jpg/image_05820'
p1962
aS'jpg/image_03401'
p1963
aS'jpg/image_06536'
p1964
aS'jpg/image_03707'
p1965
aS'jpg/image_02878'
p1966
aS'jpg/image_02241'
p1967
aS'jpg/image_01182'
p1968
aS'jpg/image_06498'
p1969
aS'jpg/image_06017'
p1970
aS'jpg/image_02802'
p1971
aS'jpg/image_06915'
p1972
aS'jpg/image_07925'
p1973
aS'jpg/image_07415'
p1974
aS'jpg/image_01702'
p1975
aS'jpg/image_05985'
p1976
aS'jpg/image_06473'
p1977
aS'jpg/image_04813'
p1978
aS'jpg/image_04388'
p1979
aS'jpg/image_02644'
p1980
aS'jpg/image_01165'
p1981
aS'jpg/image_04529'
p1982
aS'jpg/image_07901'
p1983
aS'jpg/image_05410'
p1984
aS'jpg/image_03577'
p1985
aS'jpg/image_04655'
p1986
aS'jpg/image_05850'
p1987
aS'jpg/image_02683'
p1988
aS'jpg/image_01615'
p1989
aS'jpg/image_06288'
p1990
aS'jpg/image_05704'
p1991
aS'jpg/image_06263'
p1992
aS'jpg/image_05982'
p1993
aS'jpg/image_07361'
p1994
aS'jpg/image_05906'
p1995
aS'jpg/image_00972'
p1996
aS'jpg/image_02577'
p1997
aS'jpg/image_06272'
p1998
aS'jpg/image_04585'
p1999
aS'jpg/image_04884'
p2000
aS'jpg/image_00353'
p2001
aS'jpg/image_02043'
p2002
aS'jpg/image_02537'
p2003
aS'jpg/image_01140'
p2004
aS'jpg/image_01137'
p2005
aS'jpg/image_01478'
p2006
aS'jpg/image_05827'
p2007
aS'jpg/image_00378'
p2008
aS'jpg/image_03433'
p2009
aS'jpg/image_01010'
p2010
aS'jpg/image_00113'
p2011
aS'jpg/image_01915'
p2012
aS'jpg/image_03661'
p2013
aS'jpg/image_08144'
p2014
aS'jpg/image_01865'
p2015
aS'jpg/image_07556'
p2016
aS'jpg/image_03421'
p2017
aS'jpg/image_01691'
p2018
aS'jpg/image_06006'
p2019
aS'jpg/image_04510'
p2020
aS'jpg/image_04543'
p2021
aS'jpg/image_08044'
p2022
aS'jpg/image_01309'
p2023
aS'jpg/image_00154'
p2024
aS'jpg/image_04991'
p2025
aS'jpg/image_07290'
p2026
aS'jpg/image_02671'
p2027
aS'jpg/image_07332'
p2028
aS'jpg/image_02112'
p2029
aS'jpg/image_00481'
p2030
aS'jpg/image_00075'
p2031
aS'jpg/image_00731'
p2032
aS'jpg/image_06978'
p2033
aS'jpg/image_01887'
p2034
aS'jpg/image_03266'
p2035
aS'jpg/image_02251'
p2036
aS'jpg/image_02379'
p2037
aS'jpg/image_00923'
p2038
aS'jpg/image_07759'
p2039
aS'jpg/image_07659'
p2040
aS'jpg/image_05984'
p2041
aS'jpg/image_02067'
p2042
aS'jpg/image_05933'
p2043
aS'jpg/image_06955'
p2044
aS'jpg/image_07367'
p2045
aS'jpg/image_05605'
p2046
aS'jpg/image_00438'
p2047
aS'jpg/image_05793'
p2048
aS'jpg/image_00536'
p2049
aS'jpg/image_04085'
p2050
aS'jpg/image_01439'
p2051
aS'jpg/image_03539'
p2052
aS'jpg/image_03718'
p2053
aS'jpg/image_03425'
p2054
aS'jpg/image_02472'
p2055
aS'jpg/image_05875'
p2056
aS'jpg/image_05959'
p2057
aS'jpg/image_07031'
p2058
aS'jpg/image_01332'
p2059
aS'jpg/image_04199'
p2060
aS'jpg/image_01504'
p2061
aS'jpg/image_01936'
p2062
aS'jpg/image_04117'
p2063
aS'jpg/image_04671'
p2064
aS'jpg/image_01164'
p2065
aS'jpg/image_02855'
p2066
aS'jpg/image_02269'
p2067
aS'jpg/image_04548'
p2068
aS'jpg/image_01528'
p2069
aS'jpg/image_08121'
p2070
aS'jpg/image_00522'
p2071
aS'jpg/image_06693'
p2072
aS'jpg/image_02159'
p2073
aS'jpg/image_06939'
p2074
aS'jpg/image_06299'
p2075
aS'jpg/image_03978'
p2076
aS'jpg/image_07845'
p2077
aS'jpg/image_01716'
p2078
aS'jpg/image_07330'
p2079
aS'jpg/image_02674'
p2080
aS'jpg/image_02196'
p2081
aS'jpg/image_00125'
p2082
aS'jpg/image_07720'
p2083
aS'jpg/image_01761'
p2084
aS'jpg/image_07896'
p2085
aS'jpg/image_02059'
p2086
aS'jpg/image_04810'
p2087
aS'jpg/image_00461'
p2088
aS'jpg/image_04187'
p2089
aS'jpg/image_01862'
p2090
aS'jpg/image_01364'
p2091
aS'jpg/image_08076'
p2092
aS'jpg/image_00174'
p2093
aS'jpg/image_04767'
p2094
aS'jpg/image_07589'
p2095
aS'jpg/image_07500'
p2096
aS'jpg/image_02182'
p2097
aS'jpg/image_00784'
p2098
aS'jpg/image_00714'
p2099
aS'jpg/image_08038'
p2100
aS'jpg/image_06255'
p2101
aS'jpg/image_03639'
p2102
aS'jpg/image_06996'
p2103
aS'jpg/image_04227'
p2104
aS'jpg/image_00621'
p2105
aS'jpg/image_01553'
p2106
aS'jpg/image_07924'
p2107
aS'jpg/image_01573'
p2108
aS'jpg/image_01644'
p2109
aS'jpg/image_07865'
p2110
aS'jpg/image_00055'
p2111
aS'jpg/image_00517'
p2112
aS'jpg/image_05225'
p2113
aS'jpg/image_00227'
p2114
aS'jpg/image_07565'
p2115
aS'jpg/image_06914'
p2116
aS'jpg/image_07041'
p2117
aS'jpg/image_00303'
p2118
aS'jpg/image_00575'
p2119
aS'jpg/image_01229'
p2120
aS'jpg/image_02175'
p2121
aS'jpg/image_03802'
p2122
aS'jpg/image_00645'
p2123
aS'jpg/image_01736'
p2124
aS'jpg/image_00605'
p2125
aS'jpg/image_01438'
p2126
aS'jpg/image_04889'
p2127
aS'jpg/image_04624'
p2128
aS'jpg/image_04409'
p2129
aS'jpg/image_04084'
p2130
aS'jpg/image_01900'
p2131
aS'jpg/image_02828'
p2132
aS'jpg/image_03805'
p2133
aS'jpg/image_03003'
p2134
aS'jpg/image_07246'
p2135
aS'jpg/image_05297'
p2136
aS'jpg/image_07478'
p2137
aS'jpg/image_07699'
p2138
aS'jpg/image_07932'
p2139
aS'jpg/image_04394'
p2140
aS'jpg/image_03575'
p2141
aS'jpg/image_05599'
p2142
aS'jpg/image_02496'
p2143
aS'jpg/image_05561'
p2144
aS'jpg/image_02062'
p2145
aS'jpg/image_02015'
p2146
aS'jpg/image_01231'
p2147
aS'jpg/image_00491'
p2148
aS'jpg/image_04486'
p2149
aS'jpg/image_08066'
p2150
aS'jpg/image_08140'
p2151
aS'jpg/image_02123'
p2152
aS'jpg/image_08043'
p2153
aS'jpg/image_01855'
p2154
aS'jpg/image_02747'
p2155
aS'jpg/image_00301'
p2156
aS'jpg/image_07324'
p2157
aS'jpg/image_04096'
p2158
aS'jpg/image_01268'
p2159
aS'jpg/image_00335'
p2160
aS'jpg/image_04644'
p2161
aS'jpg/image_07276'
p2162
aS'jpg/image_03541'
p2163
aS'jpg/image_01985'
p2164
aS'jpg/image_02337'
p2165
aS'jpg/image_05862'
p2166
aS'jpg/image_01840'
p2167
aS'jpg/image_05381'
p2168
aS'jpg/image_06027'
p2169
aS'jpg/image_00164'
p2170
aS'jpg/image_06911'
p2171
aS'jpg/image_06783'
p2172
aS'jpg/image_07634'
p2173
aS'jpg/image_03044'
p2174
aS'jpg/image_00914'
p2175
aS'jpg/image_06107'
p2176
aS'jpg/image_03822'
p2177
aS'jpg/image_06956'
p2178
aS'jpg/image_07507'
p2179
aS'jpg/image_02650'
p2180
aS'jpg/image_00785'
p2181
aS'jpg/image_00798'
p2182
aS'jpg/image_06120'
p2183
aS'jpg/image_02583'
p2184
aS'jpg/image_03803'
p2185
aS'jpg/image_04493'
p2186
aS'jpg/image_05021'
p2187
aS'jpg/image_00011'
p2188
aS'jpg/image_03593'
p2189
aS'jpg/image_00181'
p2190
aS'jpg/image_01742'
p2191
aS'jpg/image_01776'
p2192
aS'jpg/image_05573'
p2193
aS'jpg/image_05314'
p2194
aS'jpg/image_04722'
p2195
aS'jpg/image_04403'
p2196
aS'jpg/image_04532'
p2197
aS'jpg/image_02531'
p2198
aS'jpg/image_02228'
p2199
aS'jpg/image_04127'
p2200
aS'jpg/image_01937'
p2201
aS'jpg/image_00604'
p2202
aS'jpg/image_00705'
p2203
aS'jpg/image_03614'
p2204
aS'jpg/image_06720'
p2205
aS'jpg/image_01889'
p2206
aS'jpg/image_05056'
p2207
aS'jpg/image_06512'
p2208
aS'jpg/image_04818'
p2209
aS'jpg/image_03764'
p2210
aS'jpg/image_02214'
p2211
aS'jpg/image_04834'
p2212
aS'jpg/image_05533'
p2213
aS'jpg/image_00036'
p2214
aS'jpg/image_08001'
p2215
aS'jpg/image_07247'
p2216
aS'jpg/image_00313'
p2217
aS'jpg/image_07386'
p2218
aS'jpg/image_02310'
p2219
aS'jpg/image_01968'
p2220
aS'jpg/image_07673'
p2221
aS'jpg/image_02866'
p2222
aS'jpg/image_01738'
p2223
aS'jpg/image_05045'
p2224
aS'jpg/image_04872'
p2225
aS'jpg/image_02297'
p2226
aS'jpg/image_07448'
p2227
aS'jpg/image_05590'
p2228
aS'jpg/image_00340'
p2229
aS'jpg/image_04667'
p2230
aS'jpg/image_03186'
p2231
aS'jpg/image_00476'
p2232
aS'jpg/image_06782'
p2233
aS'jpg/image_02308'
p2234
aS'jpg/image_06026'
p2235
aS'jpg/image_06974'
p2236
aS'jpg/image_06019'
p2237
aS'jpg/image_07237'
p2238
aS'jpg/image_04172'
p2239
aS'jpg/image_05507'
p2240
aS'jpg/image_05380'
p2241
aS'jpg/image_07574'
p2242
aS'jpg/image_06804'
p2243
aS'jpg/image_00467'
p2244
aS'jpg/image_07579'
p2245
aS'jpg/image_01932'
p2246
aS'jpg/image_01290'
p2247
aS'jpg/image_01106'
p2248
aS'jpg/image_02357'
p2249
aS'jpg/image_05956'
p2250
aS'jpg/image_01410'
p2251
aS'jpg/image_02083'
p2252
aS'jpg/image_02406'
p2253
aS'jpg/image_01247'
p2254
aS'jpg/image_01693'
p2255
aS'jpg/image_04154'
p2256
aS'jpg/image_01433'
p2257
aS'jpg/image_02698'
p2258
aS'jpg/image_01919'
p2259
aS'jpg/image_07959'
p2260
aS'jpg/image_02752'
p2261
aS'jpg/image_04723'
p2262
aS'jpg/image_04732'
p2263
aS'jpg/image_05428'
p2264
aS'jpg/image_08172'
p2265
aS'jpg/image_01288'
p2266
aS'jpg/image_02132'
p2267
aS'jpg/image_03492'
p2268
aS'jpg/image_05716'
p2269
aS'jpg/image_02603'
p2270
aS'jpg/image_01878'
p2271
aS'jpg/image_02599'
p2272
aS'jpg/image_07559'
p2273
aS'jpg/image_05895'
p2274
aS'jpg/image_05496'
p2275
aS'jpg/image_04819'
p2276
aS'jpg/image_02475'
p2277
aS'jpg/image_01465'
p2278
aS'jpg/image_03763'
p2279
aS'jpg/image_02037'
p2280
aS'jpg/image_02455'
p2281
aS'jpg/image_03748'
p2282
aS'jpg/image_02144'
p2283
aS'jpg/image_08130'
p2284
aS'jpg/image_07572'
p2285
aS'jpg/image_01027'
p2286
aS'jpg/image_05025'
p2287
aS'jpg/image_02040'
p2288
aS'jpg/image_02451'
p2289
aS'jpg/image_00791'
p2290
aS'jpg/image_06023'
p2291
aS'jpg/image_03275'
p2292
aS'jpg/image_07527'
p2293
aS'jpg/image_00325'
p2294
aS'jpg/image_07463'
p2295
aS'jpg/image_05313'
p2296
aS'jpg/image_07514'
p2297
aS'jpg/image_01618'
p2298
aS'jpg/image_01236'
p2299
aS'jpg/image_06506'
p2300
aS'jpg/image_02651'
p2301
aS'jpg/image_01256'
p2302
aS'jpg/image_01701'
p2303
aS'jpg/image_07960'
p2304
aS'jpg/image_03524'
p2305
aS'jpg/image_07561'
p2306
aS'jpg/image_00560'
p2307
aS'jpg/image_06833'
p2308
aS'jpg/image_01790'
p2309
aS'jpg/image_07024'
p2310
aS'jpg/image_01847'
p2311
aS'jpg/image_04492'
p2312
aS'jpg/image_07975'
p2313
aS'jpg/image_07748'
p2314
aS'jpg/image_06469'
p2315
aS'jpg/image_00274'
p2316
aS'jpg/image_06142'
p2317
aS'jpg/image_04726'
p2318
aS'jpg/image_03791'
p2319
aS'jpg/image_03268'
p2320
aS'jpg/image_03438'
p2321
aS'jpg/image_01395'
p2322
aS'jpg/image_03400'
p2323
aS'jpg/image_06135'
p2324
aS'jpg/image_02223'
p2325
aS'jpg/image_02348'
p2326
aS'jpg/image_06490'
p2327
aS'jpg/image_00968'
p2328
aS'jpg/image_06119'
p2329
aS'jpg/image_03229'
p2330
aS'jpg/image_00129'
p2331
aS'jpg/image_03501'
p2332
aS'jpg/image_00602'
p2333
aS'jpg/image_00105'
p2334
aS'jpg/image_05530'
p2335
aS'jpg/image_00386'
p2336
aS'jpg/image_01600'
p2337
aS'jpg/image_00082'
p2338
aS'jpg/image_02180'
p2339
aS'jpg/image_07882'
p2340
aS'jpg/image_06719'
p2341
aS'jpg/image_01689'
p2342
aS'jpg/image_08005'
p2343
aS'jpg/image_02860'
p2344
aS'jpg/image_00377'
p2345
aS'jpg/image_01972'
p2346
aS'jpg/image_02602'
p2347
aS'jpg/image_03819'
p2348
aS'jpg/image_02635'
p2349
aS'jpg/image_02995'
p2350
aS'jpg/image_02275'
p2351
aS'jpg/image_00451'
p2352
aS'jpg/image_01646'
p2353
aS'jpg/image_00822'
p2354
aS'jpg/image_00447'
p2355
aS'jpg/image_04553'
p2356
aS'jpg/image_04498'
p2357
aS'jpg/image_02187'
p2358
aS'jpg/image_00640'
p2359
aS'jpg/image_03428'
p2360
aS'jpg/image_08129'
p2361
aS'jpg/image_06836'
p2362
aS'jpg/image_07717'
p2363
aS'jpg/image_00877'
p2364
aS'jpg/image_04506'
p2365
aS'jpg/image_06879'
p2366
aS'jpg/image_02456'
p2367
aS'jpg/image_07159'
p2368
aS'jpg/image_00030'
p2369
aS'jpg/image_02417'
p2370
aS'jpg/image_00790'
p2371
aS'jpg/image_03504'
p2372
aS'jpg/image_06550'
p2373
aS'jpg/image_04984'
p2374
aS'jpg/image_02848'
p2375
aS'jpg/image_04854'
p2376
aS'jpg/image_01860'
p2377
aS'jpg/image_04706'
p2378
aS'jpg/image_03246'
p2379
aS'jpg/image_03962'
p2380
aS'jpg/image_01019'
p2381
aS'jpg/image_05471'
p2382
aS'jpg/image_00489'
p2383
aS'jpg/image_04455'
p2384
aS'jpg/image_03077'
p2385
aS'jpg/image_01692'
p2386
aS'jpg/image_00275'
p2387
aS'jpg/image_00470'
p2388
aS'jpg/image_00559'
p2389
aS'jpg/image_00316'
p2390
aS'jpg/image_03733'
p2391
aS'jpg/image_02338'
p2392
aS'jpg/image_06333'
p2393
aS'jpg/image_04728'
p2394
aS'jpg/image_02181'
p2395
aS'jpg/image_02607'
p2396
aS'jpg/image_02482'
p2397
aS'jpg/image_02104'
p2398
aS'jpg/image_00854'
p2399
aS'jpg/image_02222'
p2400
aS'jpg/image_01440'
p2401
aS'jpg/image_01589'
p2402
aS'jpg/image_07750'
p2403
aS'jpg/image_02879'
p2404
aS'jpg/image_06864'
p2405
aS'jpg/image_01183'
p2406
aS'jpg/image_02298'
p2407
aS'jpg/image_01424'
p2408
aS'jpg/image_02684'
p2409
aS'jpg/image_02817'
p2410
aS'jpg/image_01824'
p2411
aS'jpg/image_03469'
p2412
aS'jpg/image_05992'
p2413
aS'jpg/image_03669'
p2414
aS'jpg/image_00355'
p2415
aS'jpg/image_00205'
p2416
aS'jpg/image_03691'
p2417
aS'jpg/image_04128'
p2418
aS'jpg/image_00376'
p2419
aS'jpg/image_01992'
p2420
aS'jpg/image_06945'
p2421
aS'jpg/image_06958'
p2422
aS'jpg/image_07314'
p2423
aS'jpg/image_02152'
p2424
aS'jpg/image_00672'
p2425
aS'jpg/image_06046'
p2426
aS'jpg/image_00724'
p2427
aS'jpg/image_07987'
p2428
aS'jpg/image_04751'
p2429
aS'jpg/image_01277'
p2430
aS'jpg/image_01697'
p2431
aS'jpg/image_01373'
p2432
aS'jpg/image_00713'
p2433
aS'jpg/image_01821'
p2434
aS'jpg/image_07815'
p2435
aS'jpg/image_01068'
p2436
aS'jpg/image_06225'
p2437
aS'jpg/image_02411'
p2438
aS'jpg/image_04855'
p2439
aS'jpg/image_04848'
p2440
aS'jpg/image_02555'
p2441
aS'jpg/image_01510'
p2442
aS'jpg/image_04836'
p2443
aS'jpg/image_04108'
p2444
aS'jpg/image_03965'
p2445
aS'jpg/image_04985'
p2446
aS'jpg/image_04329'
p2447
aS'jpg/image_02631'
p2448
aS'jpg/image_04611'
p2449
aS'jpg/image_07497'
p2450
aS'jpg/image_02011'
p2451
aS'jpg/image_05305'
p2452
aS'jpg/image_03497'
p2453
aS'jpg/image_04831'
p2454
aS'jpg/image_00737'
p2455
aS'jpg/image_00492'
p2456
aS'jpg/image_07942'
p2457
aS'jpg/image_02385'
p2458
aS'jpg/image_06946'
p2459
aS'jpg/image_01557'
p2460
aS'jpg/image_01560'
p2461
aS'jpg/image_07144'
p2462
aS'jpg/image_05849'
p2463
aS'jpg/image_02609'
p2464
aS'jpg/image_07056'
p2465
aS'jpg/image_01122'
p2466
aS'jpg/image_07648'
p2467
aS'jpg/image_02334'
p2468
aS'jpg/image_06297'
p2469
aS'jpg/image_07664'
p2470
aS'jpg/image_07034'
p2471
aS'jpg/image_03418'
p2472
aS'jpg/image_07992'
p2473
aS'jpg/image_01607'
p2474
aS'jpg/image_06443'
p2475
aS'jpg/image_01627'
p2476
aS'jpg/image_01963'
p2477
aS'jpg/image_01038'
p2478
aS'jpg/image_04675'
p2479
aS'jpg/image_07622'
p2480
aS'jpg/image_07139'
p2481
aS'jpg/image_08024'
p2482
aS'jpg/image_07508'
p2483
aS'jpg/image_03660'
p2484
aS'jpg/image_03770'
p2485
aS'jpg/image_05851'
p2486
aS'jpg/image_05223'
p2487
aS'jpg/image_01400'
p2488
aS'jpg/image_01864'
p2489
aS'jpg/image_02403'
p2490
aS'jpg/image_03913'
p2491
aS'jpg/image_03466'
p2492
aS'jpg/image_04837'
p2493
aS'jpg/image_00883'
p2494
aS'jpg/image_01276'
p2495
aS'jpg/image_01249'
p2496
aS'jpg/image_06007'
p2497
aS'jpg/image_05808'
p2498
aS'jpg/image_04520'
p2499
aS'jpg/image_04885'
p2500
aS'jpg/image_07291'
p2501
aS'jpg/image_05897'
p2502
aS'jpg/image_07341'
p2503
aS'jpg/image_04750'
p2504
aS'jpg/image_01786'
p2505
aS'jpg/image_03237'
p2506
aS'jpg/image_06016'
p2507
aS'jpg/image_07440'
p2508
aS'jpg/image_03519'
p2509
aS'jpg/image_07731'
p2510
aS'jpg/image_03226'
p2511
aS'jpg/image_07886'
p2512
aS'jpg/image_02072'
p2513
aS'jpg/image_00273'
p2514
aS'jpg/image_04710'
p2515
aS'jpg/image_02567'
p2516
aS'jpg/image_07525'
p2517
aS'jpg/image_00254'
p2518
aS'jpg/image_06989'
p2519
aS'jpg/image_07496'
p2520
aS'jpg/image_03417'
p2521
aS'jpg/image_03538'
p2522
aS'jpg/image_02579'
p2523
aS'jpg/image_04116'
p2524
aS'jpg/image_05548'
p2525
aS'jpg/image_07430'
p2526
aS'jpg/image_00478'
p2527
aS'jpg/image_05070'
p2528
aS'jpg/image_01703'
p2529
aS'jpg/image_03426'
p2530
aS'jpg/image_00109'
p2531
aS'jpg/image_07522'
p2532
aS'jpg/image_02124'
p2533
aS'jpg/image_06801'
p2534
aS'jpg/image_01479'
p2535
aS'jpg/image_06509'
p2536
aS'jpg/image_03185'
p2537
aS'jpg/image_02732'
p2538
aS'jpg/image_06925'
p2539
aS'jpg/image_02874'
p2540
aS'jpg/image_02562'
p2541
aS'jpg/image_07016'
p2542
aS'jpg/image_07649'
p2543
aS'jpg/image_06830'
p2544
aS'jpg/image_02333'
p2545
aS'jpg/image_06587'
p2546
aS'jpg/image_00903'
p2547
aS'jpg/image_00912'
p2548
aS'jpg/image_07480'
p2549
aS'jpg/image_03446'
p2550
aS'jpg/image_03562'
p2551
aS'jpg/image_05904'
p2552
aS'jpg/image_05244'
p2553
aS'jpg/image_02318'
p2554
aS'jpg/image_05536'
p2555
aS'jpg/image_04615'
p2556
aS'jpg/image_02197'
p2557
aS'jpg/image_06960'
p2558
aS'jpg/image_06477'
p2559
aS'jpg/image_04841'
p2560
aS'jpg/image_01901'
p2561
aS'jpg/image_06577'
p2562
aS'jpg/image_03715'
p2563
aS'jpg/image_03985'
p2564
aS'jpg/image_05708'
p2565
aS'jpg/image_07050'
p2566
aS'jpg/image_06021'
p2567
aS'jpg/image_01136'
p2568
aS'jpg/image_05552'
p2569
aS'jpg/image_04420'
p2570
aS'jpg/image_05598'
p2571
aS'jpg/image_03990'
p2572
aS'jpg/image_07586'
p2573
aS'jpg/image_06531'
p2574
aS'jpg/image_04504'
p2575
aS'jpg/image_01982'
p2576
aS'jpg/image_00882'
p2577
aS'jpg/image_02017'
p2578
aS'jpg/image_02573'
p2579
aS'jpg/image_04439'
p2580
aS'jpg/image_05607'
p2581
aS'jpg/image_06829'
p2582
aS'jpg/image_02113'
p2583
aS'jpg/image_04521'
p2584
aS'jpg/image_06254'
p2585
aS'jpg/image_04534'
p2586
aS'jpg/image_02997'
p2587
aS'jpg/image_00516'
p2588
aS'jpg/image_07524'
p2589
aS'jpg/image_03024'
p2590
aS'jpg/image_02438'
p2591
aS'jpg/image_02170'
p2592
aS'jpg/image_01572'
p2593
aS'jpg/image_02122'
p2594
aS'jpg/image_00284'
p2595
aS'jpg/image_07837'
p2596
aS'jpg/image_02058'
p2597
aS'jpg/image_01452'
p2598
aS'jpg/image_05337'
p2599
aS'jpg/image_01732'
p2600
aS'jpg/image_02161'
p2601
aS'jpg/image_01505'
p2602
aS'jpg/image_02990'
p2603
aS'jpg/image_04724'
p2604
aS'jpg/image_05322'
p2605
aS'jpg/image_05928'
p2606
aS'jpg/image_03542'
p2607
aS'jpg/image_00686'
p2608
aS'jpg/image_02551'
p2609
aS'jpg/image_02135'
p2610
aS'jpg/image_01529'
p2611
aS'jpg/image_08169'
p2612
aS'jpg/image_02019'
p2613
aS'jpg/image_05242'
p2614
aS'jpg/image_03559'
p2615
aS'jpg/image_05795'
p2616
aS'jpg/image_05473'
p2617
aS'jpg/image_00546'
p2618
aS'jpg/image_04180'
p2619
aS'jpg/image_03652'
p2620
aS'jpg/image_00255'
p2621
aS'jpg/image_01677'
p2622
aS'jpg/image_03747'
p2623
aS'jpg/image_03950'
p2624
aS'jpg/image_06800'
p2625
aS'jpg/image_06877'
p2626
aS'jpg/image_07479'
p2627
aS'jpg/image_08085'
p2628
aS'jpg/image_01649'
p2629
aS'jpg/image_00859'
p2630
aS'jpg/image_06705'
p2631
aS'jpg/image_04395'
p2632
aS'jpg/image_03201'
p2633
aS'jpg/image_07898'
p2634
aS'jpg/image_03217'
p2635
aS'jpg/image_07923'
p2636
aS'jpg/image_02734'
p2637
aS'jpg/image_00333'
p2638
aS'jpg/image_04518'
p2639
aS'jpg/image_07281'
p2640
aS'jpg/image_01390'
p2641
aS'jpg/image_01016'
p2642
aS'jpg/image_05562'
p2643
aS'jpg/image_00322'
p2644
aS'jpg/image_01924'
p2645
aS'jpg/image_07976'
p2646
aS'jpg/image_06470'
p2647
aS'jpg/image_00160'
p2648
aS'jpg/image_03631'
p2649
aS'jpg/image_00851'
p2650
aS'jpg/image_06793'
p2651
aS'jpg/image_07317'
p2652
aS'jpg/image_04840'
p2653
aS'jpg/image_02996'
p2654
aS'jpg/image_05740'
p2655
aS'jpg/image_07339'
p2656
aS'jpg/image_07156'
p2657
aS'jpg/image_03784'
p2658
aS'jpg/image_01160'
p2659
aS'jpg/image_02094'
p2660
aS'jpg/image_01002'
p2661
aS'jpg/image_07604'
p2662
aS'jpg/image_05831'
p2663
aS'jpg/image_04681'
p2664
aS'jpg/image_03374'
p2665
aS'jpg/image_00198'
p2666
aS'jpg/image_07396'
p2667
aS'jpg/image_07258'
p2668
aS'jpg/image_05856'
p2669
aS'jpg/image_04241'
p2670
aS'jpg/image_05836'
p2671
aS'jpg/image_00081'
p2672
aS'jpg/image_03969'
p2673
aS'jpg/image_04385'
p2674
aS'jpg/image_06329'
p2675
aS'jpg/image_00556'
p2676
aS'jpg/image_01805'
p2677
aS'jpg/image_00988'
p2678
aS'jpg/image_03025'
p2679
aS'jpg/image_00010'
p2680
aS'jpg/image_02751'
p2681
aS'jpg/image_03726'
p2682
aS'jpg/image_02363'
p2683
aS'jpg/image_00839'
p2684
aS'jpg/image_07277'
p2685
aS'jpg/image_07836'
p2686
aS'jpg/image_01743'
p2687
aS'jpg/image_07809'
p2688
aS'jpg/image_01911'
p2689
aS'jpg/image_07785'
p2690
aS'jpg/image_03372'
p2691
aS'jpg/image_04100'
p2692
aS'jpg/image_06805'
p2693
aS'jpg/image_06976'
p2694
aS'jpg/image_05423'
p2695
aS'jpg/image_06831'
p2696
aS'jpg/image_02907'
p2697
aS'jpg/image_01226'
p2698
aS'jpg/image_08174'
p2699
aS'jpg/image_02605'
p2700
aS'jpg/image_04150'
p2701
aS'jpg/image_07727'
p2702
aS'jpg/image_01404'
p2703
aS'jpg/image_02619'
p2704
aS'jpg/image_02459'
p2705
aS'jpg/image_03765'
p2706
aS'jpg/image_04082'
p2707
aS'jpg/image_03055'
p2708
aS'jpg/image_02468'
p2709
aS'jpg/image_00180'
p2710
aS'jpg/image_07849'
p2711
aS'jpg/image_07047'
p2712
aS'jpg/image_03267'
p2713
aS'jpg/image_03746'
p2714
aS'jpg/image_01813'
p2715
aS'jpg/image_00068'
p2716
aS'jpg/image_05469'
p2717
aS'jpg/image_01969'
p2718
aS'jpg/image_05712'
p2719
aS'jpg/image_01391'
p2720
aS'jpg/image_05614'
p2721
aS'jpg/image_01384'
p2722
aS'jpg/image_02942'
p2723
aS'jpg/image_02896'
p2724
aS'jpg/image_04126'
p2725
aS'jpg/image_05042'
p2726
aS'jpg/image_01216'
p2727
aS'jpg/image_02296'
p2728
aS'jpg/image_00490'
p2729
aS'jpg/image_05523'
p2730
aS'jpg/image_06109'
p2731
aS'jpg/image_02690'
p2732
aS'jpg/image_05273'
p2733
aS'jpg/image_06957'
p2734
aS'jpg/image_01348'
p2735
aS'jpg/image_02935'
p2736
aS'jpg/image_04536'
p2737
aS'jpg/image_05440'
p2738
aS'jpg/image_00392'
p2739
aS'jpg/image_07575'
p2740
aS'jpg/image_00884'
p2741
aS'jpg/image_03427'
p2742
aS'jpg/image_01167'
p2743
aS'jpg/image_07605'
p2744
aS'jpg/image_07618'
p2745
aS'jpg/image_06697'
p2746
aS'jpg/image_00208'
p2747
aS'jpg/image_07666'
p2748
aS'jpg/image_00531'
p2749
aS'jpg/image_04994'
p2750
aS'jpg/image_02095'
p2751
aS'jpg/image_06873'
p2752
aS'jpg/image_01291'
p2753
aS'jpg/image_06213'
p2754
aS'jpg/image_07001'
p2755
aS'jpg/image_00657'
p2756
aS'jpg/image_03967'
p2757
aS'jpg/image_05346'
p2758
aS'jpg/image_07661'
p2759
aS'jpg/image_00799'
p2760
aS'jpg/image_01888'
p2761
aS'jpg/image_02614'
p2762
aS'jpg/image_05212'
p2763
aS'jpg/image_06992'
p2764
aS'jpg/image_05472'
p2765
aS'jpg/image_02248'
p2766
aS'jpg/image_07784'
p2767
aS'jpg/image_07685'
p2768
aS'jpg/image_01729'
p2769
aS'jpg/image_02521'
p2770
aS'jpg/image_00871'
p2771
aS'jpg/image_07545'
p2772
aS'jpg/image_00305'
p2773
aS'jpg/image_07884'
p2774
aS'jpg/image_05378'
p2775
aS'jpg/image_06478'
p2776
aS'jpg/image_07558'
p2777
aS'jpg/image_06131'
p2778
aS'jpg/image_01394'
p2779
aS'jpg/image_06454'
p2780
aS'jpg/image_04686'
p2781
aS'jpg/image_01227'
p2782
aS'jpg/image_01326'
p2783
aS'jpg/image_05339'
p2784
aS'jpg/image_07343'
p2785
aS'jpg/image_00102'
p2786
aS'jpg/image_06893'
p2787
aS'jpg/image_00603'
p2788
aS'jpg/image_01317'
p2789
aS'jpg/image_06901'
p2790
aS'jpg/image_06558'
p2791
aS'jpg/image_02450'
p2792
aS'jpg/image_07241'
p2793
aS'jpg/image_07792'
p2794
aS'jpg/image_03493'
p2795
aS'jpg/image_02897'
p2796
aS'jpg/image_02886'
p2797
aS'jpg/image_05884'
p2798
aS'jpg/image_02943'
p2799
aS'jpg/image_07667'
p2800
aS'jpg/image_04557'
p2801
aS'jpg/image_01257'
p2802
aS'jpg/image_08135'
p2803
aS'jpg/image_07950'
p2804
aS'jpg/image_05898'
p2805
aS'jpg/image_03187'
p2806
aS'jpg/image_06711'
p2807
aS'jpg/image_02559'
p2808
aS'jpg/image_00815'
p2809
aS'jpg/image_01246'
p2810
aS'jpg/image_06854'
p2811
aS'jpg/image_05577'
p2812
aS'jpg/image_05477'
p2813
aS'jpg/image_05835'
p2814
aS'jpg/image_00945'
p2815
aS'jpg/image_02544'
p2816
aS'jpg/image_01918'
p2817
aS'jpg/image_02323'
p2818
aS'jpg/image_00092'
p2819
aS'jpg/image_01765'
p2820
aS'jpg/image_03023'
p2821
aS'jpg/image_05386'
p2822
aS'jpg/image_05550'
p2823
aS'jpg/image_06575'
p2824
aS'jpg/image_00530'
p2825
aS'jpg/image_00809'
p2826
aS'jpg/image_01718'
p2827
aS'jpg/image_02753'
p2828
aS'jpg/image_03004'
p2829
aS'jpg/image_01380'
p2830
aS'jpg/image_06280'
p2831
aS'jpg/image_05012'
p2832
aS'jpg/image_01979'
p2833
aS'jpg/image_07870'
p2834
aS'jpg/image_06312'
p2835
aS'jpg/image_00895'
p2836
aS'jpg/image_03626'
p2837
aS'jpg/image_02656'
p2838
aS'jpg/image_00210'
p2839
aS'jpg/image_02790'
p2840
aS'jpg/image_06572'
p2841
aS'jpg/image_07270'
p2842
aS'jpg/image_00112'
p2843
aS'jpg/image_00299'
p2844
aS'jpg/image_01139'
p2845
aS'jpg/image_04567'
p2846
aS'jpg/image_03467'
p2847
aS'jpg/image_05994'
p2848
aS'jpg/image_06479'
p2849
aS'jpg/image_04376'
p2850
aS'jpg/image_05499'
p2851
aS'jpg/image_01595'
p2852
aS'jpg/image_05970'
p2853
aS'jpg/image_03676'
p2854
aS'jpg/image_04713'
p2855
aS'jpg/image_00128'
p2856
aS'jpg/image_00473'
p2857
aS'jpg/image_07402'
p2858
aS'jpg/image_00985'
p2859
aS'jpg/image_01444'
p2860
aS'jpg/image_07611'
p2861
aS'jpg/image_01147'
p2862
aS'jpg/image_07741'
p2863
aS'jpg/image_02345'
p2864
aS'jpg/image_02811'
p2865
aS'jpg/image_02789'
p2866
aS'jpg/image_01271'
p2867
aS'jpg/image_00187'
p2868
aS'jpg/image_04630'
p2869
aS'jpg/image_05915'
p2870
aS'jpg/image_05251'
p2871
aS'jpg/image_03668'
p2872
aS'jpg/image_01101'
p2873
aS'jpg/image_01940'
p2874
aS'jpg/image_00597'
p2875
aS'jpg/image_06223'
p2876
aS'jpg/image_03061'
p2877
aS'jpg/image_06481'
p2878
aS'jpg/image_00541'
p2879
aS'jpg/image_07354'
p2880
aS'jpg/image_07951'
p2881
aS'jpg/image_07944'
p2882
aS'jpg/image_08087'
p2883
aS'jpg/image_05274'
p2884
aS'jpg/image_01261'
p2885
aS'jpg/image_03963'
p2886
aS'jpg/image_06136'
p2887
aS'jpg/image_06264'
p2888
aS'jpg/image_07801'
p2889
aS'jpg/image_06574'
p2890
aS'jpg/image_05829'
p2891
aS'jpg/image_07983'
p2892
aS'jpg/image_00878'
p2893
aS'jpg/image_03209'
p2894
aS'jpg/image_06855'
p2895
aS'jpg/image_00006'
p2896
aS'jpg/image_07855'
p2897
aS'jpg/image_08080'
p2898
aS'jpg/image_01635'
p2899
aS'jpg/image_04098'
p2900
aS'jpg/image_03462'
p2901
aS'jpg/image_02589'
p2902
aS'jpg/image_01817'
p2903
aS'jpg/image_04676'
p2904
aS'jpg/image_07782'
p2905
aS'jpg/image_07130'
p2906
aS'jpg/image_04549'
p2907
aS'jpg/image_03563'
p2908
aS'jpg/image_05325'
p2909
aS'jpg/image_07839'
p2910
aS'jpg/image_02462'
p2911
aS'jpg/image_01000'
p2912
aS'jpg/image_03005'
p2913
aS'jpg/image_00934'
p2914
aS'jpg/image_00044'
p2915
aS'jpg/image_01820'
p2916
aS'jpg/image_03449'
p2917
aS'jpg/image_07765'
p2918
aS'jpg/image_04577'
p2919
aS'jpg/image_05301'
p2920
aS'jpg/image_01782'
p2921
aS'jpg/image_01667'
p2922
aS'jpg/image_02685'
p2923
aS'jpg/image_02031'
p2924
aS'jpg/image_00083'
p2925
aS'jpg/image_07068'
p2926
aS'jpg/image_02027'
p2927
aS'jpg/image_03703'
p2928
aS'jpg/image_07968'
p2929
aS'jpg/image_06878'
p2930
aS'jpg/image_01007'
p2931
aS'jpg/image_08119'
p2932
aS'jpg/image_03712'
p2933
aS'jpg/image_07904'
p2934
aS'jpg/image_03405'
p2935
aS'jpg/image_05041'
p2936
aS'jpg/image_03233'
p2937
aS'jpg/image_07740'
p2938
aS'jpg/image_07737'
p2939
aS'jpg/image_01363'
p2940
aS'jpg/image_07278'
p2941
aS'jpg/image_01406'
p2942
aS'jpg/image_06875'
p2943
aS'jpg/image_02816'
p2944
aS'jpg/image_03397'
p2945
aS'jpg/image_07610'
p2946
aS'jpg/image_08086'
p2947
aS'jpg/image_06284'
p2948
aS'jpg/image_01372'
p2949
aS'jpg/image_05252'
p2950
aS'jpg/image_06524'
p2951
aS'jpg/image_03431'
p2952
aS'jpg/image_04330'
p2953
aS'jpg/image_08188'
p2954
aS'jpg/image_05081'
p2955
aS'jpg/image_08022'
p2956
aS'jpg/image_03651'
p2957
aS'jpg/image_02939'
p2958
aS'jpg/image_05371'
p2959
aS'jpg/image_07509'
p2960
aS'jpg/image_01759'
p2961
aS'jpg/image_05890'
p2962
aS'jpg/image_00071'
p2963
aS'jpg/image_05556'
p2964
aS'jpg/image_02376'
p2965
aS'jpg/image_04778'
p2966
aS'jpg/image_06262'
p2967
aS'jpg/image_06593'
p2968
aS'jpg/image_00579'
p2969
aS'jpg/image_04541'
p2970
aS'jpg/image_07149'
p2971
aS'jpg/image_01443'
p2972
aS'jpg/image_00879'
p2973
aS'jpg/image_00939'
p2974
aS'jpg/image_01001'
p2975
aS'jpg/image_04099'
p2976
aS'jpg/image_06012'
p2977
aS'jpg/image_01787'
p2978
aS'jpg/image_07301'
p2979
aS'jpg/image_03213'
p2980
aS'jpg/image_00150'
p2981
aS'jpg/image_01634'
p2982
aS'jpg/image_04741'
p2983
aS'jpg/image_01065'
p2984
aS'jpg/image_06807'
p2985
aS'jpg/image_07239'
p2986
aS'jpg/image_00272'
p2987
aS'jpg/image_01318'
p2988
aS'jpg/image_01704'
p2989
aS'jpg/image_03232'
p2990
aS'jpg/image_02335'
p2991
aS'jpg/image_07304'
p2992
aS'jpg/image_02616'
p2993
aS'jpg/image_01079'
p2994
aS'jpg/image_06541'
p2995
aS'jpg/image_07764'
p2996
aS'jpg/image_05949'
p2997
aS'jpg/image_03579'
p2998
aS'jpg/image_07984'
p2999
aS'jpg/image_07842'
p3000
aS'jpg/image_04434'
p3001
aS'jpg/image_01626'
p3002
aS'jpg/image_04739'
p3003
aS'jpg/image_08052'
p3004
aS'jpg/image_03977'
p3005
aS'jpg/image_05964'
p3006
aS'jpg/image_02384'
p3007
aS'jpg/image_01641'
p3008
aS'jpg/image_06233'
p3009
aS'jpg/image_01539'
p3010
aS'jpg/image_02834'
p3011
aS'jpg/image_02476'
p3012
aS'jpg/image_01899'
p3013
aS'jpg/image_05930'
p3014
aS'jpg/image_05554'
p3015
aS'jpg/image_00796'
p3016
aS'jpg/image_04674'
p3017
aS'jpg/image_00800'
p3018
aS'jpg/image_07693'
p3019
aS'jpg/image_05296'
p3020
aS'jpg/image_00659'
p3021
aS'jpg/image_04190'
p3022
aS'jpg/image_05049'
p3023
aS'jpg/image_00742'
p3024
aS'jpg/image_02898'
p3025
aS'jpg/image_03058'
p3026
aS'jpg/image_06456'
p3027
aS'jpg/image_07596'
p3028
aS'jpg/image_02702'
p3029
aS'jpg/image_07564'
p3030
aS'jpg/image_03534'
p3031
aS'jpg/image_06525'
p3032
aS'jpg/image_00372'
p3033
aS'jpg/image_01037'
p3034
aS'jpg/image_02240'
p3035
aS'jpg/image_00782'
p3036
aS'jpg/image_01191'
p3037
aS'jpg/image_03271'
p3038
aS'jpg/image_06271'
p3039
aS'jpg/image_03735'
p3040
aS'jpg/image_01579'
p3041
aS'jpg/image_04796'
p3042
aS'jpg/image_06451'
p3043
aS'jpg/image_02273'
p3044
aS'jpg/image_04849'
p3045
aS'jpg/image_05456'
p3046
aS'jpg/image_02253'
p3047
aS'jpg/image_02564'
p3048
aS'jpg/image_05265'
p3049
aS'jpg/image_04462'
p3050
aS'jpg/image_04453'
p3051
aS'jpg/image_03923'
p3052
aS'jpg/image_04242'
p3053
aS'jpg/image_06869'
p3054
aS'jpg/image_03531'
p3055
aS'jpg/image_07429'
p3056
aS'jpg/image_01884'
p3057
aS'jpg/image_00775'
p3058
aS'jpg/image_06515'
p3059
aS'jpg/image_04349'
p3060
aS'jpg/image_05981'
p3061
aS'jpg/image_08149'
p3062
aS'jpg/image_04965'
p3063
aS'jpg/image_07238'
p3064
aS'jpg/image_06508'
p3065
aS'jpg/image_01501'
p3066
aS'jpg/image_06547'
p3067
aS'jpg/image_00060'
p3068
aS'jpg/image_07472'
p3069
aS'jpg/image_03419'
p3070
aS'jpg/image_01831'
p3071
aS'jpg/image_01396'
p3072
aS'jpg/image_06918'
p3073
aS'jpg/image_00758'
p3074
aS'jpg/image_05332'
p3075
aS'jpg/image_03468'
p3076
aS'jpg/image_01683'
p3077
aS'jpg/image_01168'
p3078
aS'jpg/image_00296'
p3079
aS'jpg/image_06476'
p3080
aS'jpg/image_00662'
p3081
aS'jpg/image_02719'
p3082
aS'jpg/image_02111'
p3083
aS'jpg/image_01858'
p3084
aS'jpg/image_01724'
p3085
aS'jpg/image_03194'
p3086
aS'jpg/image_05709'
p3087
aS'jpg/image_06015'
p3088
aS'jpg/image_04503'
p3089
aS'jpg/image_08053'
p3090
aS'jpg/image_06457'
p3091
aS'jpg/image_04088'
p3092
aS'jpg/image_02735'
p3093
aS'jpg/image_00147'
p3094
aS'jpg/image_00156'
p3095
aS'jpg/image_07468'
p3096
aS'jpg/image_05500'
p3097
aS'jpg/image_06980'
p3098
aS'jpg/image_03188'
p3099
aS'jpg/image_00641'
p3100
aS'jpg/image_05876'
p3101
aS'jpg/image_01983'
p3102
aS'jpg/image_07800'
p3103
aS'jpg/image_02720'
p3104
aS'jpg/image_06209'
p3105
aS'jpg/image_01752'
p3106
aS'jpg/image_03687'
p3107
aS'jpg/image_05222'
p3108
aS'jpg/image_04983'
p3109
aS'jpg/image_00954'
p3110
aS'jpg/image_06214'
p3111
aS'jpg/image_04838'
p3112
aS'jpg/image_06920'
p3113
aS'jpg/image_04875'
p3114
aS'jpg/image_01310'
p3115
aS'jpg/image_03528'
p3116
aS'jpg/image_00375'
p3117
aS'jpg/image_04632'
p3118
aS'jpg/image_00050'
p3119
aS'jpg/image_07124'
p3120
aS'jpg/image_01492'
p3121
aS'jpg/image_04092'
p3122
aS'jpg/image_01145'
p3123
aS'jpg/image_02550'
p3124
aS'jpg/image_05694'
p3125
aS'jpg/image_00383'
p3126
aS'jpg/image_02845'
p3127
aS'jpg/image_01036'
p3128
aS'jpg/image_05924'
p3129
aS'jpg/image_01260'
p3130
aS'jpg/image_03436'
p3131
aS'jpg/image_01090'
p3132
aS'jpg/image_02018'
p3133
aS'jpg/image_07142'
p3134
aS'jpg/image_02301'
p3135
aS'jpg/image_04546'
p3136
aS'jpg/image_03793'
p3137
aS'jpg/image_01142'
p3138
aS'jpg/image_01803'
p3139
aS'jpg/image_07079'
p3140
aS'jpg/image_06040'
p3141
aS'jpg/image_07917'
p3142
aS'jpg/image_06344'
p3143
aS'jpg/image_00428'
p3144
aS'jpg/image_02473'
p3145
aS'jpg/image_04551'
p3146
aS'jpg/image_02617'
p3147
aS'jpg/image_05589'
p3148
aS'jpg/image_06322'
p3149
aS'jpg/image_03200'
p3150
aS'jpg/image_01020'
p3151
aS'jpg/image_05327'
p3152
aS'jpg/image_02800'
p3153
aS'jpg/image_02189'
p3154
aS'jpg/image_07806'
p3155
aS'jpg/image_02807'
p3156
aS'jpg/image_05817'
p3157
aS'jpg/image_01017'
p3158
aS'jpg/image_06843'
p3159
aS'jpg/image_00057'
p3160
aS'jpg/image_05934'
p3161
aS'jpg/image_04967'
p3162
aS'jpg/image_05847'
p3163
aS'jpg/image_02865'
p3164
aS'jpg/image_05986'
p3165
aS'jpg/image_05710'
p3166
aS'jpg/image_00117'
p3167
aS'jpg/image_00510'
p3168
aS'jpg/image_02648'
p3169
aS'jpg/image_00913'
p3170
aS'jpg/image_03915'
p3171
aS'jpg/image_02492'
p3172
aS'jpg/image_03265'
p3173
aS'jpg/image_07876'
p3174
aS'jpg/image_07138'
p3175
aS'jpg/image_04868'
p3176
aS'jpg/image_05922'
p3177
aS'jpg/image_00497'
p3178
aS'jpg/image_01284'
p3179
aS'jpg/image_01354'
p3180
aS'jpg/image_04173'
p3181
aS'jpg/image_01161'
p3182
aS'jpg/image_02016'
p3183
aS'jpg/image_06981'
p3184
aS'jpg/image_06994'
p3185
aS'jpg/image_02833'
p3186
aS'jpg/image_02283'
p3187
aS'jpg/image_02933'
p3188
aS'jpg/image_01506'
p3189
aS'jpg/image_07810'
p3190
aS'jpg/image_00508'
p3191
aS'jpg/image_01144'
p3192
aS'jpg/image_05837'
p3193
aS'jpg/image_06953'
p3194
aS'jpg/image_05566'
p3195
aS'jpg/image_01753'
p3196
aS'jpg/image_04604'
p3197
aS'jpg/image_05335'
p3198
aS'jpg/image_00120'
p3199
aS'jpg/image_05794'
p3200
aS'jpg/image_07583'
p3201
aS'jpg/image_02590'
p3202
aS'jpg/image_04535'
p3203
aS'jpg/image_02612'
p3204
aS'jpg/image_07490'
p3205
aS'jpg/image_00765'
p3206
aS'jpg/image_06852'
p3207
aS'jpg/image_08011'
p3208
aS'jpg/image_07706'
p3209
aS'jpg/image_07642'
p3210
aS'jpg/image_01199'
p3211
aS'jpg/image_00133'
p3212
aS'jpg/image_02167'
p3213
aS'jpg/image_05551'
p3214
aS'jpg/image_07152'
p3215
aS'jpg/image_02272'
p3216
aS'jpg/image_00158'
p3217
aS'jpg/image_04169'
p3218
aS'jpg/image_00098'
p3219
aS'jpg/image_03694'
p3220
aS'jpg/image_01804'
p3221
aS'jpg/image_02639'
p3222
aS'jpg/image_02863'
p3223
aS'jpg/image_05359'
p3224
aS'jpg/image_08010'
p3225
aS'jpg/image_00070'
p3226
aS'jpg/image_05432'
p3227
aS'jpg/image_07141'
p3228
aS'jpg/image_05719'
p3229
aS'jpg/image_06148'
p3230
aS'jpg/image_07488'
p3231
aS'jpg/image_00732'
p3232
aS'jpg/image_06581'
p3233
aS'jpg/image_03653'
p3234
aS'jpg/image_06265'
p3235
aS'jpg/image_02353'
p3236
aS'jpg/image_01997'
p3237
aS'jpg/image_00003'
p3238
aS'jpg/image_02718'
p3239
aS'jpg/image_00399'
p3240
aS'jpg/image_02831'
p3241
aS'jpg/image_02342'
p3242
aS'jpg/image_07899'
p3243
aS'jpg/image_02523'
p3244
aS'jpg/image_07265'
p3245
aS'jpg/image_00637'
p3246
aS'jpg/image_07358'
p3247
aS'jpg/image_06048'
p3248
aS'jpg/image_02174'
p3249
aS'jpg/image_07627'
p3250
aS'jpg/image_05397'
p3251
aS'jpg/image_00927'
p3252
aS'jpg/image_01114'
p3253
aS'jpg/image_03451'
p3254
aS'jpg/image_05974'
p3255
aS'jpg/image_02814'
p3256
aS'jpg/image_05557'
p3257
aS'jpg/image_06907'
p3258
aS'jpg/image_02538'
p3259
aS'jpg/image_01336'
p3260
aS'jpg/image_01238'
p3261
aS'jpg/image_05811'
p3262
aS'jpg/image_02116'
p3263
aS'jpg/image_00051'
p3264
aS'jpg/image_02176'
p3265
aS'jpg/image_02461'
p3266
aS'jpg/image_05360'
p3267
aS'jpg/image_08029'
p3268
aS'jpg/image_06559'
p3269
aS'jpg/image_00681'
p3270
aS'jpg/image_02999'
p3271
aS'jpg/image_05720'
p3272
aS'jpg/image_04633'
p3273
aS'jpg/image_07697'
p3274
aS'jpg/image_03434'
p3275
aS'jpg/image_05019'
p3276
aS'jpg/image_01217'
p3277
aS'jpg/image_00304'
p3278
aS'jpg/image_02046'
p3279
aS'jpg/image_02727'
p3280
aS'jpg/image_00868'
p3281
aS'jpg/image_01242'
p3282
aS'jpg/image_02075'
p3283
aS'jpg/image_07900'
p3284
aS'jpg/image_04083'
p3285
aS'jpg/image_00423'
p3286
aS'jpg/image_01785'
p3287
aS'jpg/image_06009'
p3288
aS'jpg/image_07808'
p3289
aS'jpg/image_00548'
p3290
aS'jpg/image_03022'
p3291
aS'jpg/image_01799'
p3292
aS'jpg/image_06562'
p3293
aS'jpg/image_06970'
p3294
aS'jpg/image_00142'
p3295
aS'jpg/image_05466'
p3296
aS'jpg/image_05621'
p3297
aS'jpg/image_02520'
p3298
aS'jpg/image_03228'
p3299
aS'jpg/image_06146'
p3300
aS'jpg/image_01171'
p3301
aS'jpg/image_04640'
p3302
aS'jpg/image_05282'
p3303
aS'jpg/image_02488'
p3304
aS'jpg/image_03587'
p3305
aS'jpg/image_05338'
p3306
aS'jpg/image_06778'
p3307
aS'jpg/image_02871'
p3308
aS'jpg/image_02652'
p3309
aS'jpg/image_05522'
p3310
aS'jpg/image_00743'
p3311
aS'jpg/image_00330'
p3312
aS'jpg/image_02927'
p3313
aS'jpg/image_00475'
p3314
aS'jpg/image_01640'
p3315
aS'jpg/image_07046'
p3316
aS'jpg/image_01710'
p3317
aS'jpg/image_03801'
p3318
aS'jpg/image_06494'
p3319
aS'jpg/image_04491'
p3320
aS'jpg/image_03536'
p3321
aS'jpg/image_04371'
p3322
aS'jpg/image_04636'
p3323
aS'jpg/image_04846'
p3324
aS'jpg/image_00837'
p3325
aS'jpg/image_04537'
p3326
aS'jpg/image_05430'
p3327
aS'jpg/image_06108'
p3328
aS'jpg/image_01837'
p3329
aS'jpg/image_04679'
p3330
aS'jpg/image_00920'
p3331
aS'jpg/image_00086'
p3332
aS'jpg/image_04481'
p3333
aS'jpg/image_01283'
p3334
aS'jpg/image_06900'
p3335
aS'jpg/image_06534'
p3336
aS'jpg/image_01115'
p3337
aS'jpg/image_01783'
p3338
aS'jpg/image_03742'
p3339
aS'jpg/image_06835'
p3340
aS'jpg/image_04852'
p3341
aS'jpg/image_02365'
p3342
aS'jpg/image_00209'
p3343
aS'jpg/image_02700'
p3344
aS'jpg/image_01946'
p3345
aS'jpg/image_03393'
p3346
aS'jpg/image_06703'
p3347
aS'jpg/image_07619'
p3348
aS'jpg/image_01794'
p3349
aS'jpg/image_06723'
p3350
aS'jpg/image_06234'
p3351
aS'jpg/image_04415'
p3352
aS'jpg/image_02973'
p3353
aS'jpg/image_03481'
p3354
aS'jpg/image_02402'
p3355
aS'jpg/image_01125'
p3356
aS'jpg/image_00994'
p3357
aS'jpg/image_00781'
p3358
aS'jpg/image_06008'
p3359
aS'jpg/image_01138'
p3360
aS'jpg/image_05527'
p3361
aS'jpg/image_05902'
p3362
aS'jpg/image_07240'
p3363
aS'jpg/image_07389'
p3364
aS'jpg/image_00870'
p3365
aS'jpg/image_04664'
p3366
aS'jpg/image_07783'
p3367
aS'jpg/image_00498'
p3368
aS'jpg/image_05262'
p3369
aS'jpg/image_03946'
p3370
aS'jpg/image_00084'
p3371
aS'jpg/image_01341'
p3372
aS'jpg/image_06775'
p3373
aS'jpg/image_01071'
p3374
aS'jpg/image_01221'
p3375
aS'jpg/image_06313'
p3376
aS'jpg/image_03450'
p3377
aS'jpg/image_01643'
p3378
aS'jpg/image_04591'
p3379
aS'jpg/image_03439'
p3380
aS'jpg/image_01245'
p3381
aS'jpg/image_07973'
p3382
aS'jpg/image_01853'
p3383
aS'jpg/image_04745'
p3384
aS'jpg/image_04206'
p3385
aS'jpg/image_05914'
p3386
aS'jpg/image_06698'
p3387
aS'jpg/image_08154'
p3388
aS'jpg/image_04147'
p3389
aS'jpg/image_01187'
p3390
aS'jpg/image_05439'
p3391
aS'jpg/image_02625'
p3392
aS'jpg/image_02887'
p3393
aS'jpg/image_07573'
p3394
aS'jpg/image_00450'
p3395
aS'jpg/image_04717'
p3396
aS'jpg/image_07869'
p3397
aS'jpg/image_01196'
p3398
aS'jpg/image_07337'
p3399
aS'jpg/image_05215'
p3400
aS'jpg/image_07057'
p3401
aS'jpg/image_07668'
p3402
aS'jpg/image_02744'
p3403
aS'jpg/image_03745'
p3404
aS'jpg/image_02490'
p3405
aS'jpg/image_03680'
p3406
aS'jpg/image_02230'
p3407
aS'jpg/image_04185'
p3408
aS'jpg/image_01941'
p3409
aS'jpg/image_07974'
p3410
aS'jpg/image_05511'
p3411
aS'jpg/image_00145'
p3412
aS'jpg/image_00343'
p3413
aS'jpg/image_04758'
p3414
aS'jpg/image_01672'
p3415
aS'jpg/image_01210'
p3416
aS'jpg/image_05448'
p3417
aS'jpg/image_05688'
p3418
aS'jpg/image_01727'
p3419
aS'jpg/image_01808'
p3420
aS'jpg/image_00157'
p3421
aS'jpg/image_05342'
p3422
aS'jpg/image_08166'
p3423
aS'jpg/image_04958'
p3424
aS'jpg/image_00585'
p3425
aS'jpg/image_00894'
p3426
aS'jpg/image_07534'
p3427
aS'jpg/image_07335'
p3428
aS'jpg/image_06592'
p3429
aS'jpg/image_02792'
p3430
aS'jpg/image_03513'
p3431
aS'jpg/image_03679'
p3432
aS'jpg/image_00992'
p3433
aS'jpg/image_02030'
p3434
aS'jpg/image_00009'
p3435
aS'jpg/image_02588'
p3436
aS'jpg/image_07722'
p3437
aS'jpg/image_00928'
p3438
aS'jpg/image_06321'
p3439
aS'jpg/image_00534'
p3440
aS'jpg/image_04964'
p3441
aS'jpg/image_00904'
p3442
aS'jpg/image_01609'
p3443
aS'jpg/image_05936'
p3444
aS'jpg/image_02527'
p3445
aS'jpg/image_02945'
p3446
aS'jpg/image_02055'
p3447
aS'jpg/image_02643'
p3448
aS'jpg/image_00935'
p3449
aS'jpg/image_07638'
p3450
aS'jpg/image_06235'
p3451
aS'jpg/image_00942'
p3452
aS'jpg/image_06137'
p3453
aS'jpg/image_05408'
p3454
aS'jpg/image_05463'
p3455
aS'jpg/image_04339'
p3456
aS'jpg/image_01666'
p3457
aS'jpg/image_03971'
p3458
aS'jpg/image_05584'
p3459
aS'jpg/image_00984'
p3460
aS'jpg/image_02704'
p3461
aS'jpg/image_01958'
p3462
aS'jpg/image_02624'
p3463
aS'jpg/image_02169'
p3464
aS'jpg/image_04522'
p3465
aS'jpg/image_05891'
p3466
aS'jpg/image_03251'
p3467
aS'jpg/image_01967'
p3468
aS'jpg/image_00760'
p3469
aS'jpg/image_07945'
p3470
aS'jpg/image_00811'
p3471
aS'jpg/image_06020'
p3472
aS'jpg/image_04560'
p3473
aS'jpg/image_03448'
p3474
aS'jpg/image_05286'
p3475
aS'jpg/image_06325'
p3476
aS'jpg/image_04358'
p3477
aS'jpg/image_03565'
p3478
aS'jpg/image_02597'
p3479
aS'jpg/image_07012'
p3480
aS'jpg/image_01301'
p3481
aS'jpg/image_06003'
p3482
aS'jpg/image_01463'
p3483
aS'jpg/image_03648'
p3484
aS'jpg/image_01903'
p3485
aS'jpg/image_07948'
p3486
aS'jpg/image_04789'
p3487
aS'jpg/image_03522'
p3488
aS'jpg/image_02431'
p3489
aS'jpg/image_02822'
p3490
aS'jpg/image_01578'
p3491
aS'jpg/image_00710'
p3492
aS'jpg/image_01705'
p3493
aS'jpg/image_01806'
p3494
aS'jpg/image_05017'
p3495
aS'jpg/image_04601'
p3496
aS'jpg/image_07279'
p3497
aS'jpg/image_00435'
p3498
aS'jpg/image_04725'
p3499
aS'jpg/image_05703'
p3500
aS'jpg/image_00929'
p3501
aS'jpg/image_02245'
p3502
aS'jpg/image_00533'
p3503
aS'jpg/image_01218'
p3504
aS'jpg/image_00518'
p3505
aS'jpg/image_04225'
p3506
aS'jpg/image_01346'
p3507
aS'jpg/image_00797'
p3508
aS'jpg/image_03001'
p3509
aS'jpg/image_02621'
p3510
aS'jpg/image_04894'
p3511
aS'jpg/image_02183'
p3512
aS'jpg/image_01685'
p3513
aS'jpg/image_06268'
p3514
aS'jpg/image_07036'
p3515
aS'jpg/image_03453'
p3516
aS'jpg/image_06314'
p3517
aS'jpg/image_07736'
p3518
aS'jpg/image_03681'
p3519
aS'jpg/image_08132'
p3520
aS'jpg/image_06842'
p3521
aS'jpg/image_01169'
p3522
aS'jpg/image_02850'
p3523
aS'jpg/image_00666'
p3524
aS'jpg/image_01442'
p3525
aS'jpg/image_08089'
p3526
aS'jpg/image_03410'
p3527
aS'jpg/image_02491'
p3528
aS'jpg/image_04610'
p3529
aS'jpg/image_00373'
p3530
aS'jpg/image_00048'
p3531
aS'jpg/image_04629'
p3532
aS'jpg/image_04102'
p3533
aS'jpg/image_06551'
p3534
aS'jpg/image_02193'
p3535
aS'jpg/image_06799'
p3536
aS'jpg/image_06117'
p3537
aS'jpg/image_02755'
p3538
aS'jpg/image_07372'
p3539
aS'jpg/image_07831'
p3540
aS'jpg/image_05237'
p3541
aS'jpg/image_00658'
p3542
aS'jpg/image_07252'
p3543
aS'jpg/image_04594'
p3544
aS'jpg/image_05065'
p3545
aS'jpg/image_07305'
p3546
aS'jpg/image_04777'
p3547
aS'jpg/image_02274'
p3548
aS'jpg/image_01259'
p3549
aS'jpg/image_00292'
p3550
aS'jpg/image_00735'
p3551
aS'jpg/image_02209'
p3552
aS'jpg/image_02453'
p3553
aS'jpg/image_00619'
p3554
aS'jpg/image_01152'
p3555
aS'jpg/image_01632'
p3556
aS'jpg/image_01796'
p3557
aS'jpg/image_02988'
p3558
aS'jpg/image_03083'
p3559
aS'jpg/image_06838'
p3560
aS'jpg/image_06270'
p3561
aS'jpg/image_01576'
p3562
aS'jpg/image_04850'
p3563
aS'jpg/image_07077'
p3564
aS'jpg/image_01388'
p3565
aS'jpg/image_01974'
p3566
aS'jpg/image_04600'
p3567
aS'jpg/image_03373'
p3568
aS'jpg/image_05055'
p3569
aS'jpg/image_08037'
p3570
aS'jpg/image_02569'
p3571
aS'jpg/image_03225'
p3572
aS'jpg/image_06540'
p3573
aS'jpg/image_05298'
p3574
aS'jpg/image_00131'
p3575
aS'jpg/image_05048'
p3576
aS'jpg/image_04857'
p3577
aS'jpg/image_05881'
p3578
aS'jpg/image_02070'
p3579
aS'jpg/image_03931'
p3580
aS'jpg/image_02494'
p3581
aS'jpg/image_07616'
p3582
aS'jpg/image_02604'
p3583
aS'jpg/image_05376'
p3584
aS'jpg/image_01538'
p3585
aS'jpg/image_01352'
p3586
aS'jpg/image_08134'
p3587
aS'jpg/image_01898'
p3588
aS'jpg/image_03006'
p3589
aS'jpg/image_07761'
p3590
aS'jpg/image_05816'
p3591
aS'jpg/image_02444'
p3592
aS'jpg/image_01682'
p3593
aS'jpg/image_01104'
p3594
aS'jpg/image_06798'
p3595
aS'jpg/image_04982'
p3596
aS'jpg/image_08039'
p3597
aS'jpg/image_02312'
p3598
aS'jpg/image_00694'
p3599
aS'jpg/image_07602'
p3600
aS'jpg/image_00964'
p3601
aS'jpg/image_00206'
p3602
aS'jpg/image_03059'
p3603
aS'jpg/image_06902'
p3604
aS'jpg/image_00176'
p3605
aS'jpg/image_05996'
p3606
aS'jpg/image_05858'
p3607
aS'jpg/image_01661'
p3608
aS'jpg/image_02596'
p3609
aS'jpg/image_01172'
p3610
aS'jpg/image_06882'
p3611
aS'jpg/image_05085'
p3612
aS'jpg/image_08063'
p3613
aS'jpg/image_03609'
p3614
aS'jpg/image_02795'
p3615
aS'jpg/image_02765'
p3616
aS'jpg/image_02086'
p3617
aS'jpg/image_00625'
p3618
aS'jpg/image_00563'
p3619
aS'jpg/image_01089'
p3620
aS'jpg/image_05877'
p3621
aS'jpg/image_05236'
p3622
aS'jpg/image_02423'
p3623
aS'jpg/image_06786'
p3624
aS'jpg/image_01960'
p3625
aS'jpg/image_01802'
p3626
aS'jpg/image_04851'
p3627
aS'jpg/image_01258'
p3628
aS'jpg/image_02077'
p3629
aS'jpg/image_04605'
p3630
aS'jpg/image_06323'
p3631
aS'jpg/image_03993'
p3632
aS'jpg/image_05034'
p3633
aS'jpg/image_04776'
p3634
aS'jpg/image_03394'
p3635
aS'jpg/image_04835'
p3636
aS'jpg/image_07426'
p3637
aS'jpg/image_05525'
p3638
aS'jpg/image_02888'
p3639
aS'jpg/image_02226'
p3640
aS'jpg/image_02584'
p3641
aS'jpg/image_01305'
p3642
aS'jpg/image_00807'
p3643
aS'jpg/image_06014'
p3644
aS'jpg/image_02916'
p3645
aS'jpg/image_03654'
p3646
aS'jpg/image_00019'
p3647
aS'jpg/image_02864'
p3648
aS'jpg/image_00259'
p3649
aS'jpg/image_02194'
p3650
aS'jpg/image_05693'
p3651
aS'jpg/image_02390'
p3652
aS'jpg/image_01699'
p3653
aS'jpg/image_01763'
p3654
aS'jpg/image_04829'
p3655
aS'jpg/image_05249'
p3656
aS'jpg/image_00367'
p3657
aS'jpg/image_04368'
p3658
aS'jpg/image_02773'
p3659
aS'jpg/image_06342'
p3660
aS'jpg/image_02649'
p3661
aS'jpg/image_02071'
p3662
aS'jpg/image_03914'
p3663
aS'jpg/image_02064'
p3664
aS'jpg/image_03540'
p3665
aS'jpg/image_02890'
p3666
aS'jpg/image_03924'
p3667
aS'jpg/image_06608'
p3668
aS'jpg/image_02688'
p3669
aS'jpg/image_00496'
p3670
aS'jpg/image_01725'
p3671
aS'jpg/image_00722'
p3672
aS'jpg/image_03529'
p3673
aS'jpg/image_07548'
p3674
aS'jpg/image_00346'
p3675
aS'jpg/image_01493'
p3676
aS'jpg/image_06523'
p3677
aS'jpg/image_04465'
p3678
aS'jpg/image_00159'
p3679
aS'jpg/image_06458'
p3680
aS'jpg/image_03815'
p3681
aS'jpg/image_07767'
p3682
aS'jpg/image_00965'
p3683
aS'jpg/image_00978'
p3684
aS'jpg/image_06964'
p3685
aS'jpg/image_00906'
p3686
aS'jpg/image_01566'
p3687
aS'jpg/image_07135'
p3688
aS'jpg/image_00695'
p3689
aS'jpg/image_07491'
p3690
aS'jpg/image_04867'
p3691
aS'jpg/image_02433'
p3692
aS'jpg/image_03773'
p3693
aS'jpg/image_07872'
p3694
aS'jpg/image_00321'
p3695
aS'jpg/image_01198'
p3696
aS'jpg/image_01943'
p3697
aS'jpg/image_04354'
p3698
aS'jpg/image_01289'
p3699
aS'jpg/image_03437'
p3700
aS'jpg/image_00901'
p3701
aS'jpg/image_05726'
p3702
aS'jpg/image_04142'
p3703
aS'jpg/image_05001'
p3704
aS'jpg/image_06839'
p3705
aS'jpg/image_04956'
p3706
aS'jpg/image_06555'
p3707
aS'jpg/image_04792'
p3708
aS'jpg/image_02048'
p3709
aS'jpg/image_01797'
p3710
aS'jpg/image_06564'
p3711
aS'jpg/image_06730'
p3712
aS'jpg/image_07129'
p3713
aS'jpg/image_03074'
p3714
aS'jpg/image_02730'
p3715
aS'jpg/image_06580'
p3716
aS'jpg/image_01669'
p3717
aS'jpg/image_01295'
p3718
aS'jpg/image_04524'
p3719
aS'jpg/image_05284'
p3720
aS'jpg/image_08186'
p3721
aS'jpg/image_01009'
p3722
aS'jpg/image_04243'
p3723
aS'jpg/image_04087'
p3724
aS'jpg/image_07594'
p3725
aS'jpg/image_07819'
p3726
aS'jpg/image_01474'
p3727
aS'jpg/image_07427'
p3728
aS'jpg/image_07526'
p3729
aS'jpg/image_05457'
p3730
aS'jpg/image_04523'
p3731
aS'jpg/image_02920'
p3732
aS'jpg/image_03530'
p3733
aS'jpg/image_06277'
p3734
aS'jpg/image_08055'
p3735
aS'jpg/image_06257'
p3736
aS'jpg/image_04693'
p3737
aS'jpg/image_07933'
p3738
aS'jpg/image_05625'
p3739
aS'jpg/image_01507'
p3740
aS'jpg/image_08143'
p3741
aS'jpg/image_02561'
p3742
aS'jpg/image_04701'
p3743
aS'jpg/image_06113'
p3744
aS'jpg/image_00926'
p3745
aS'jpg/image_05841'
p3746
aS'jpg/image_04637'
p3747
aS'jpg/image_06781'
p3748
aS'jpg/image_00520'
p3749
aS'jpg/image_07503'
p3750
aS'jpg/image_00981'
p3751
aS'jpg/image_03238'
p3752
aS'jpg/image_02921'
p3753
aS'jpg/image_03674'
p3754
aS'jpg/image_06030'
p3755
aS'jpg/image_01651'
p3756
aS'jpg/image_06906'
p3757
aS'jpg/image_05825'
p3758
aS'jpg/image_00907'
p3759
aS'jpg/image_04488'
p3760
aS'jpg/image_07457'
p3761
aS'jpg/image_01870'
p3762
aS'jpg/image_03797'
p3763
aS'jpg/image_07956'
p3764
aS'jpg/image_05350'
p3765
aS'jpg/image_02783'
p3766
aS'jpg/image_02835'
p3767
aS'jpg/image_03231'
p3768
aS'jpg/image_05564'
p3769
aS'jpg/image_00359'
p3770
aS'jpg/image_07446'
p3771
aS'jpg/image_03602'
p3772
aS'jpg/image_07013'
p3773
aS'jpg/image_01628'
p3774
aS'jpg/image_06995'
p3775
aS'jpg/image_01792'
p3776
aS'jpg/image_01030'
p3777
aS'jpg/image_00310'
p3778
aS'jpg/image_02317'
p3779
aS'jpg/image_00616'
p3780
aS'jpg/image_01270'
p3781
aS'jpg/image_07910'
p3782
aS'jpg/image_02638'
p3783
aS'jpg/image_02415'
p3784
aS'jpg/image_02900'
p3785
aS'jpg/image_01755'
p3786
aS'jpg/image_05010'
p3787
aS'jpg/image_01253'
p3788
aS'jpg/image_05063'
p3789
aS'jpg/image_02478'
p3790
aS'jpg/image_05721'
p3791
aS'jpg/image_04866'
p3792
aS'jpg/image_04525'
p3793
aS'jpg/image_07580'
p3794
aS'jpg/image_05743'
p3795
aS'jpg/image_04143'
p3796
aS'jpg/image_04152'
p3797
aS'jpg/image_06865'
p3798
aS'jpg/image_02659'
p3799
aS'jpg/image_01028'
p3800
aS'jpg/image_03632'
p3801
aS'jpg/image_00056'
p3802
aS'jpg/image_02994'
p3803
aS'jpg/image_02918'
p3804
aS'jpg/image_00139'
p3805
aS'jpg/image_04457'
p3806
aS'jpg/image_05492'
p3807
aS'jpg/image_05547'
p3808
aS'jpg/image_05870'
p3809
aS'jpg/image_01698'
p3810
aS'jpg/image_07739'
p3811
aS'jpg/image_05587'
p3812
aS'jpg/image_00192'
p3813
aS'jpg/image_01842'
p3814
aS'jpg/image_04449'
p3815
aS'jpg/image_01077'
p3816
aS'jpg/image_07880'
p3817
aS'jpg/image_02400'
p3818
aS'jpg/image_01205'
p3819
aS'jpg/image_00295'
p3820
aS'jpg/image_04375'
p3821
aS'jpg/image_05833'
p3822
aS'jpg/image_07395'
p3823
aS'jpg/image_07002'
p3824
aS'jpg/image_07818'
p3825
aS'jpg/image_04870'
p3826
aS'jpg/image_07833'
p3827
aS'jpg/image_04597'
p3828
aS'jpg/image_00026'
p3829
aS'jpg/image_06812'
p3830
aS'jpg/image_04847'
p3831
aS'jpg/image_07244'
p3832
aS'jpg/image_00971'
p3833
aS'jpg/image_07747'
p3834
aS'jpg/image_00861'
p3835
aS'jpg/image_00545'
p3836
aS'jpg/image_05516'
p3837
aS'jpg/image_03983'
p3838
aS'jpg/image_07834'
p3839
aS'jpg/image_00189'
p3840
aS'jpg/image_07471'
p3841
aS'jpg/image_01764'
p3842
aS'jpg/image_00039'
p3843
aS'jpg/image_01740'
p3844
aS'jpg/image_07701'
p3845
aS'jpg/image_06600'
p3846
aS'jpg/image_02660'
p3847
aS'jpg/image_03743'
p3848
aS'jpg/image_01292'
p3849
aS'jpg/image_05486'
p3850
aS'jpg/image_05351'
p3851
aS'jpg/image_02364'
p3852
aS'jpg/image_05344'
p3853
aS'jpg/image_08152'
p3854
aS'jpg/image_01369'
p3855
aS'jpg/image_01835'
p3856
aS'jpg/image_01947'
p3857
aS'jpg/image_05738'
p3858
aS'jpg/image_01629'
p3859
aS'jpg/image_06722'
p3860
aS'jpg/image_05383'
p3861
aS'jpg/image_04513'
p3862
aS'jpg/image_04146'
p3863
aS'jpg/image_04447'
p3864
aS'jpg/image_06123'
p3865
aS'jpg/image_05255'
p3866
aS'jpg/image_06971'
p3867
aS'jpg/image_02515'
p3868
aS'jpg/image_00417'
p3869
aS'jpg/image_02389'
p3870
aS'jpg/image_06779'
p3871
aS'jpg/image_02839'
p3872
aS'jpg/image_00389'
p3873
aS'jpg/image_02777'
p3874
aS'jpg/image_00311'
p3875
aS'jpg/image_05013'
p3876
aS'jpg/image_08098'
p3877
aS'jpg/image_05480'
p3878
aS'jpg/image_05239'
p3879
aS'jpg/image_00262'
p3880
aS'jpg/image_07600'
p3881
aS'jpg/image_06207'
p3882
aS'jpg/image_00845'
p3883
aS'jpg/image_07832'
p3884
aS'jpg/image_03244'
p3885
aS'jpg/image_06859'
p3886
aS'jpg/image_03731'
p3887
aS'jpg/image_04665'
p3888
aS'jpg/image_03705'
p3889
aS'jpg/image_06239'
p3890
aS'jpg/image_05912'
p3891
aS'jpg/image_03947'
p3892
aS'jpg/image_07067'
p3893
aS'jpg/image_00085'
p3894
aS'jpg/image_00631'
p3895
aS'jpg/image_01170'
p3896
aS'jpg/image_00627'
p3897
aS'jpg/image_05368'
p3898
aS'jpg/image_04678'
p3899
aS'jpg/image_07607'
p3900
aS'jpg/image_03191'
p3901
aS'jpg/image_00881'
p3902
aS'jpg/image_04234'
p3903
aS'jpg/image_02961'
p3904
aS'jpg/image_06806'
p3905
aS'jpg/image_05606'
p3906
aS'jpg/image_05443'
p3907
aS'jpg/image_01409'
p3908
aS'jpg/image_00860'
p3909
aS'jpg/image_00817'
p3910
aS'jpg/image_07563'
p3911
aS'jpg/image_05878'
p3912
aS'jpg/image_07828'
p3913
aS'jpg/image_06861'
p3914
aS'jpg/image_02985'
p3915
aS'jpg/image_00970'
p3916
aS'jpg/image_01368'
p3917
aS'jpg/image_04156'
p3918
aS'jpg/image_02092'
p3919
aS'jpg/image_04955'
p3920
aS'jpg/image_00021'
p3921
aS'jpg/image_03056'
p3922
aS'jpg/image_05478'
p3923
aS'jpg/image_01680'
p3924
aS'jpg/image_05465'
p3925
aS'jpg/image_00458'
p3926
aS'jpg/image_04205'
p3927
aS'jpg/image_06968'
p3928
aS'jpg/image_04970'
p3929
aS'jpg/image_02439'
p3930
aS'jpg/image_01766'
p3931
aS'jpg/image_06301'
p3932
aS'jpg/image_00576'
p3933
aS'jpg/image_02327'
p3934
aS'jpg/image_04446'
p3935
aS'jpg/image_04479'
p3936
aS'jpg/image_01376'
p3937
aS'jpg/image_04148'
p3938
aS'jpg/image_02892'
p3939
aS'jpg/image_07243'
p3940
aS'jpg/image_04512'
p3941
aS'jpg/image_00166'
p3942
aS'jpg/image_07601'
p3943
aS'jpg/image_07866'
p3944
aS'jpg/image_01885'
p3945
aS'jpg/image_01430'
p3946
aS'jpg/image_02514'
p3947
aS'jpg/image_07665'
p3948
aS'jpg/image_01220'
p3949
aS'jpg/image_02895'
p3950
aS'jpg/image_01329'
p3951
aS'jpg/image_04607'
p3952
aS'jpg/image_05839'
p3953
aS'jpg/image_04451'
p3954
aS'jpg/image_02818'
p3955
aS'jpg/image_07518'
p3956
aS'jpg/image_04877'
p3957
aS'jpg/image_01244'
p3958
aS'jpg/image_08006'
p3959
aS'jpg/image_02464'
p3960
aS'jpg/image_06034'
p3961
aS'jpg/image_03009'
p3962
aS'jpg/image_00535'
p3963
aS'jpg/image_00424'
p3964
aS'jpg/image_00016'
p3965
aS'jpg/image_04811'
p3966
aS'jpg/image_02951'
p3967
aS'jpg/image_07679'
p3968
aS'jpg/image_02824'
p3969
aS'jpg/image_03757'
p3970
aS'jpg/image_00844'
p3971
aS'jpg/image_06931'
p3972
aS'jpg/image_01044'
p3973
aS'jpg/image_00408'
p3974
aS'jpg/image_05714'
p3975
aS'jpg/image_01638'
p3976
aS'jpg/image_02944'
p3977
aS'jpg/image_07026'
p3978
aS'jpg/image_01953'
p3979
aS'jpg/image_02974'
p3980
aS'jpg/image_01058'
p3981
aS'jpg/image_00584'
p3982
aS'jpg/image_05711'
p3983
aS'jpg/image_01642'
p3984
aS'jpg/image_02219'
p3985
aS'jpg/image_03640'
p3986
aS'jpg/image_00276'
p3987
aS'jpg/image_06518'
p3988
aS'jpg/image_04131'
p3989
aS'jpg/image_02286'
p3990
aS'jpg/image_01494'
p3991
aS'jpg/image_07052'
p3992
aS'jpg/image_08112'
p3993
aS'jpg/image_01113'
p3994
aS'jpg/image_00201'
p3995
aS'jpg/image_01397'
p3996
aS'jpg/image_02954'
p3997
aS'jpg/image_01402'
p3998
aS'jpg/image_01622'
p3999
aS'jpg/image_06111'
p4000
aS'jpg/image_07039'
p4001
aS'jpg/image_05462'
p4002
aS'jpg/image_00684'
p4003
aS'jpg/image_02893'
p4004
aS'jpg/image_07637'
p4005
aS'jpg/image_07791'
p4006
aS'jpg/image_03711'
p4007
aS'jpg/image_07807'
p4008
aS'jpg/image_02259'
p4009
aS'jpg/image_04966'
p4010
aS'jpg/image_03416'
p4011
aS'jpg/image_05953'
p4012
aS'jpg/image_02806'
p4013
aS'jpg/image_05973'
p4014
aS'jpg/image_00364'
p4015
aS'jpg/image_02810'
p4016
aS'jpg/image_03586'
p4017
aS'jpg/image_01154'
p4018
aS'jpg/image_01612'
p4019
aS'jpg/image_03479'
p4020
aS'jpg/image_02705'
p4021
aS'jpg/image_00709'
p4022
aS'jpg/image_00257'
p4023
aS'jpg/image_03255'
p4024
aS'jpg/image_07954'
p4025
aS'jpg/image_07045'
p4026
aS'jpg/image_05700'
p4027
aS'jpg/image_03494'
p4028
aS'jpg/image_07867'
p4029
aS'jpg/image_05838'
p4030
aS'jpg/image_02221'
p4031
aS'jpg/image_06232'
p4032
aS'jpg/image_00752'
p4033
aS'jpg/image_06576'
p4034
aS'jpg/image_07953'
p4035
aS'jpg/image_02076'
p4036
aS'jpg/image_05461'
p4037
aS'jpg/image_04718'
p4038
aS'jpg/image_05503'
p4039
aS'jpg/image_00436'
p4040
aS'jpg/image_03087'
p4041
aS'jpg/image_06231'
p4042
aS'jpg/image_07083'
p4043
aS'jpg/image_01523'
p4044
aS'jpg/image_04821'
p4045
aS'jpg/image_07768'
p4046
aS'jpg/image_03000'
p4047
aS'jpg/image_01371'
p4048
aS'jpg/image_00119'
p4049
aS'jpg/image_00711'
p4050
aS'jpg/image_05083'
p4051
aS'jpg/image_07817'
p4052
aS'jpg/image_08031'
p4053
aS'jpg/image_07656'
p4054
aS'jpg/image_01916'
p4055
aS'jpg/image_01684'
p4056
aS'jpg/image_01569'
p4057
aS'jpg/image_00135'
p4058
aS'jpg/image_08133'
p4059
aS'jpg/image_06331'
p4060
aS'jpg/image_00748'
p4061
aS'jpg/image_04470'
p4062
aS'jpg/image_06986'
p4063
aS'jpg/image_08161'
p4064
aS'jpg/image_04780'
p4065
aS'jpg/image_02741'
p4066
aS'jpg/image_05585'
p4067
aS'jpg/image_02001'
p4068
aS'jpg/image_04130'
p4069
aS'jpg/image_06919'
p4070
aS'jpg/image_05336'
p4071
aS'jpg/image_03769'
p4072
aS'jpg/image_06324'
p4073
aS'jpg/image_02432'
p4074
aS'jpg/image_05003'
p4075
aS'jpg/image_03774'
p4076
aS'jpg/image_00356'
p4077
aS'jpg/image_02270'
p4078
aS'jpg/image_08032'
p4079
aS'jpg/image_07292'
p4080
aS'jpg/image_07745'
p4081
aS'jpg/image_02118'
p4082
aS'jpg/image_03411'
p4083
aS'jpg/image_07636'
p4084
aS'jpg/image_07955'
p4085
aS'jpg/image_06482'
p4086
aS'jpg/image_00618'
p4087
aS'jpg/image_05610'
p4088
aS'jpg/image_05723'
p4089
aS'jpg/image_00216'
p4090
aS'jpg/image_03686'
p4091
aS'jpg/image_08084'
p4092
aS'jpg/image_07742'
p4093
aS'jpg/image_02763'
p4094
aS'jpg/image_03582'
p4095
aS'jpg/image_06047'
p4096
aS'jpg/image_03781'
p4097
aS'jpg/image_01219'
p4098
aS'jpg/image_00776'
p4099
aS'jpg/image_03677'
p4100
aS'jpg/image_05317'
p4101
aS'jpg/image_05537'
p4102
aS'jpg/image_04772'
p4103
aS'jpg/image_02120'
p4104
aS'jpg/image_07620'
p4105
aS'jpg/image_05489'
p4106
aS'jpg/image_02775'
p4107
aS'jpg/image_03376'
p4108
aS'jpg/image_00789'
p4109
aS'jpg/image_07255'
p4110
aS'jpg/image_07617'
p4111
aS'jpg/image_02215'
p4112
aS'jpg/image_01003'
p4113
aS'jpg/image_01593'
p4114
aS'jpg/image_02754'
p4115
aS'jpg/image_05568'
p4116
aS'jpg/image_02243'
p4117
aS'jpg/image_00258'
p4118
aS'jpg/image_02394'
p4119
aS'jpg/image_01867'
p4120
aS'jpg/image_01050'
p4121
aS'jpg/image_07484'
p4122
aS'jpg/image_06826'
p4123
aS'jpg/image_03813'
p4124
aS'jpg/image_07554'
p4125
aS'jpg/image_02313'
p4126
aS'jpg/image_02512'
p4127
aS'jpg/image_03224'
p4128
aS'jpg/image_04781'
p4129
aS'jpg/image_04794'
p4130
aS'jpg/image_01013'
p4131
aS'jpg/image_01568'
p4132
aS'jpg/image_00853'
p4133
aS'jpg/image_01583'
p4134
aS'jpg/image_00483'
p4135
aS'jpg/image_07306'
p4136
aS'jpg/image_08159'
p4137
aS'jpg/image_04471'
p4138
aS'jpg/image_07744'
p4139
aS'jpg/image_03408'
p4140
aS'jpg/image_04753'
p4141
aS'jpg/image_07963'
p4142
aS'jpg/image_01232'
p4143
aS'jpg/image_01513'
p4144
aS'jpg/image_03443'
p4145
aS'jpg/image_07153'
p4146
aS'jpg/image_04425'
p4147
aS'jpg/image_01633'
p4148
aS'jpg/image_06245'
p4149
aS'jpg/image_04144'
p4150
aS'jpg/image_00390'
p4151
aS'jpg/image_05532'
p4152
aS'jpg/image_05429'
p4153
aS'jpg/image_00826'
p4154
aS'jpg/image_05810'
p4155
aS'jpg/image_01389'
p4156
aS'jpg/image_00314'
p4157
aS'jpg/image_07799'
p4158
aS'jpg/image_06935'
p4159
aS'jpg/image_00767'
p4160
aS'jpg/image_02876'
p4161
aS'jpg/image_03032'
p4162
aS'jpg/image_01656'
p4163
aS'jpg/image_01189'
p4164
aS'jpg/image_02764'
p4165
aS'jpg/image_05519'
p4166
aS'jpg/image_05307'
p4167
aS'jpg/image_04377'
p4168
aS'jpg/image_02889'
p4169
aS'jpg/image_00127'
p4170
aS'jpg/image_02857'
p4171
aS'jpg/image_00049'
p4172
aS'jpg/image_02917'
p4173
aS'jpg/image_06217'
p4174
aS'jpg/image_03655'
p4175
aS'jpg/image_03533'
p4176
aS'jpg/image_02591'
p4177
aS'jpg/image_00553'
p4178
aS'jpg/image_00118'
p4179
aS'jpg/image_08071'
p4180
aS'jpg/image_04547'
p4181
aS'jpg/image_00542'
p4182
aS'jpg/image_01784'
p4183
aS'jpg/image_03949'
p4184
aS'jpg/image_05299'
p4185
aS'jpg/image_01811'
p4186
aS'jpg/image_05865'
p4187
aS'jpg/image_00342'
p4188
aS'jpg/image_02536'
p4189
aS'jpg/image_03992'
p4190
aS'jpg/image_06533'
p4191
aS'jpg/image_04396'
p4192
aS'jpg/image_06036'
p4193
aS'jpg/image_07972'
p4194
aS'jpg/image_00024'
p4195
aS'jpg/image_00947'
p4196
aS'jpg/image_06522'
p4197
aS'jpg/image_07714'
p4198
aS'jpg/image_07442'
p4199
aS'jpg/image_00745'
p4200
aS'jpg/image_04707'
p4201
aS'jpg/image_00338'
p4202
aS'jpg/image_07536'
p4203
aS'jpg/image_07438'
p4204
aS'jpg/image_03659'
p4205
aS'jpg/image_00716'
p4206
aS'jpg/image_04177'
p4207
aS'jpg/image_05072'
p4208
aS'jpg/image_00261'
p4209
aS'jpg/image_06797'
p4210
aS'jpg/image_02728'
p4211
aS'jpg/image_01771'
p4212
aS'jpg/image_02137'
p4213
aS'jpg/image_01311'
p4214
aS'jpg/image_01876'
p4215
aS'jpg/image_06554'
p4216
aS'jpg/image_05331'
p4217
aS'jpg/image_05727'
p4218
aS'jpg/image_04565'
p4219
aS'jpg/image_07962'
p4220
aS'jpg/image_02162'
p4221
aS'jpg/image_06822'
p4222
aS'jpg/image_01659'
p4223
aS'jpg/image_06244'
p4224
aS'jpg/image_06455'
p4225
aS'jpg/image_02195'
p4226
aS'jpg/image_04747'
p4227
aS'jpg/image_02103'
p4228
aS'jpg/image_02986'
p4229
aS'jpg/image_06099'
p4230
aS'jpg/image_06548'
p4231
aS'jpg/image_07532'
p4232
aS'jpg/image_01886'
p4233
aS'jpg/image_02542'
p4234
aS'jpg/image_01912'
p4235
aS'jpg/image_06330'
p4236
aS'jpg/image_04954'
p4237
aS'jpg/image_01014'
p4238
aS'jpg/image_01086'
p4239
aS'jpg/image_05008'
p4240
aS'jpg/image_00320'
p4241
aS'jpg/image_08041'
p4242
aS'jpg/image_06449'
p4243
aS'jpg/image_02307'
p4244
aS'jpg/image_02224'
p4245
aS'jpg/image_08179'
p4246
aS'jpg/image_00288'
p4247
aS'jpg/image_05742'
p4248
aS'jpg/image_04978'
p4249
aS'jpg/image_04432'
p4250
aS'jpg/image_00052'
p4251
aS'jpg/image_08054'
p4252
aS'jpg/image_02022'
p4253
aS'jpg/image_06256'
p4254
aS'jpg/image_08064'
p4255
aS'jpg/image_04656'
p4256
aS'jpg/image_08142'
p4257
aS'jpg/image_01708'
p4258
aS'jpg/image_02560'
p4259
aS'jpg/image_00366'
p4260
aS'jpg/image_02470'
p4261
aS'jpg/image_03026'
p4262
aS'jpg/image_01128'
p4263
aS'jpg/image_01485'
p4264
aS'jpg/image_06696'
p4265
aS'jpg/image_03051'
p4266
aS'jpg/image_06885'
p4267
aS'jpg/image_03282'
p4268
aS'jpg/image_07820'
p4269
aS'jpg/image_02829'
p4270
aS'jpg/image_06237'
p4271
aS'jpg/image_02295'
p4272
aS'jpg/image_01833'
p4273
aS'jpg/image_02316'
p4274
aS'jpg/image_03820'
p4275
aS'jpg/image_07483'
p4276
aS'jpg/image_04700'
p4277
aS'jpg/image_07715'
p4278
aS'jpg/image_01473'
p4279
aS'jpg/image_07319'
p4280
aS'jpg/image_01031'
p4281
aS'jpg/image_07647'
p4282
aS'jpg/image_07320'
p4283
aS'jpg/image_02721'
p4284
aS'jpg/image_02341'
p4285
aS'jpg/image_00565'
p4286
aS'jpg/image_05460'
p4287
aS'jpg/image_06729'
p4288
aS'jpg/image_07873'
p4289
aS'jpg/image_02666'
p4290
aS'jpg/image_01264'
p4291
aS'jpg/image_03223'
p4292
aS'jpg/image_00979'
p4293
aS'jpg/image_01668'
p4294
aS'jpg/image_03754'
p4295
aS'jpg/image_04845'
p4296
aS'jpg/image_06594'
p4297
aS'jpg/image_07567'
p4298
aS'jpg/image_07725'
p4299
aS'jpg/image_04770'
p4300
aS'jpg/image_04342'
p4301
aS'jpg/image_03430'
p4302
aS'jpg/image_02784'
p4303
aS'jpg/image_07738'
p4304
aS'jpg/image_04220'
p4305
aS'jpg/image_00982'
p4306
aS'jpg/image_01087'
p4307
aS'jpg/image_04882'
p4308
aS'jpg/image_01146'
p4309
aS'jpg/image_02904'
p4310
aS'jpg/image_05840'
p4311
aS'jpg/image_06983'
p4312
aS'jpg/image_02803'
p4313
aS'jpg/image_05989'
p4314
aS'jpg/image_00031'
p4315
aS'jpg/image_05824'
p4316
aS'jpg/image_01177'
p4317
aS'jpg/image_07541'
p4318
aS'jpg/image_07671'
p4319
aS'jpg/image_07421'
p4320
aS'jpg/image_03786'
p4321
aS'jpg/image_07771'
p4322
aS'jpg/image_06466'
p4323
aS'jpg/image_05592'
p4324
aS'jpg/image_02165'
p4325
aS'jpg/image_05373'
p4326
aS'jpg/image_07921'
p4327
aS'jpg/image_03269'
p4328
aS'jpg/image_06844'
p4329
aS'jpg/image_01741'
p4330
aS'jpg/image_03378'
p4331
aS'jpg/image_05733'
p4332
aS'jpg/image_01603'
p4333
aS'jpg/image_03551'
p4334
aS'jpg/image_04807'
p4335
aS'jpg/image_02339'
p4336
aS'jpg/image_01754'
p4337
aS'jpg/image_06870'
p4338
aS'jpg/image_00757'
p4339
aS'jpg/image_00693'
p4340
aS'jpg/image_04754'
p4341
aS'jpg/image_05269'
p4342
aS'jpg/image_02324'
p4343
aS'jpg/image_05937'
p4344
aS'jpg/image_03424'
p4345
aS'jpg/image_06816'
p4346
aS'jpg/image_05910'
p4347
aS'jpg/image_05572'
p4348
aS'jpg/image_06790'
p4349
aS'jpg/image_02661'
p4350
aS'jpg/image_07336'
p4351
aS'jpg/image_06985'
p4352
aS'jpg/image_05426'
p4353
aS'jpg/image_02388'
p4354
aS'jpg/image_02838'
p4355
aS'jpg/image_03072'
p4356
aS'jpg/image_04373'
p4357
aS'jpg/image_03046'
p4358
aS'jpg/image_00074'
p4359
aS'jpg/image_06610'
p4360
aS'jpg/image_02552'
p4361
aS'jpg/image_01350'
p4362
aS'jpg/image_02130'
p4363
aS'jpg/image_05009'
p4364
aS'jpg/image_07127'
p4365
aS'jpg/image_02768'
p4366
aS'jpg/image_05271'
p4367
aS'jpg/image_05517'
p4368
aS'jpg/image_02325'
p4369
aS'jpg/image_00440'
p4370
aS'jpg/image_04230'
p4371
aS'jpg/image_00456'
p4372
aS'jpg/image_01335'
p4373
aS'jpg/image_02401'
p4374
aS'jpg/image_02408'
p4375
aS'jpg/image_07516'
p4376
aS'jpg/image_03599'
p4377
aS'jpg/image_06963'
p4378
aS'jpg/image_06937'
p4379
aS'jpg/image_04859'
p4380
aS'jpg/image_00388'
p4381
aS'jpg/image_00802'
p4382
aS'jpg/image_04805'
p4383
aS'jpg/image_02426'
p4384
aS'jpg/image_01224'
p4385
aS'jpg/image_03456'
p4386
aS'jpg/image_07774'
p4387
aS'jpg/image_01293'
p4388
aS'jpg/image_03698'
p4389
aS'jpg/image_07009'
p4390
aS'jpg/image_00327'
p4391
aS'jpg/image_07055'
p4392
aS'jpg/image_00655'
p4393
aS'jpg/image_05563'
p4394
aS'jpg/image_03008'
p4395
aS'jpg/image_00958'
p4396
aS'jpg/image_07969'
p4397
aS'jpg/image_04081'
p4398
aS'jpg/image_06504'
p4399
aS'jpg/image_07066'
p4400
aS'jpg/image_01955'
p4401
aS'jpg/image_05464'
p4402
aS'jpg/image_04460'
p4403
aS'jpg/image_02678'
p4404
aS'jpg/image_00756'
p4405
aS'jpg/image_00769'
p4406
aS'jpg/image_01845'
p4407
aS'jpg/image_02647'
p4408
aS'jpg/image_04192'
p4409
aS'jpg/image_05345'
p4410
aS'jpg/image_03380'
p4411
aS'jpg/image_07035'
p4412
aS'jpg/image_07506'
p4413
aS'jpg/image_06485'
p4414
aS'jpg/image_03452'
p4415
aS'jpg/image_06122'
p4416
aS'jpg/image_06788'
p4417
aS'jpg/image_03605'
p4418
aS'jpg/image_03783'
p4419
aS'jpg/image_00397'
p4420
aS'jpg/image_02505'
p4421
aS'jpg/image_03218'
p4422
aS'jpg/image_07263'
p4423
aS'jpg/image_05696'
p4424
aS'jpg/image_05940'
p4425
aS'jpg/image_05032'
p4426
aS'jpg/image_02079'
p4427
aS'jpg/image_03959'
p4428
aS'jpg/image_02258'
p4429
aS'jpg/image_04878'
p4430
aS'jpg/image_00771'
p4431
aS'jpg/image_08007'
p4432
aS'jpg/image_01195'
p4433
aS'jpg/image_02465'
p4434
aS'jpg/image_00263'
p4435
aS'jpg/image_02766'
p4436
aS'jpg/image_06808'
p4437
aS'jpg/image_02355'
p4438
aS'jpg/image_01548'
p4439
aS'jpg/image_08025'
p4440
aS'jpg/image_05879'
p4441
aS'jpg/image_02418'
p4442
aS'jpg/image_05447'
p4443
aS'jpg/image_02919'
p4444
aS'jpg/image_02084'
p4445
aS'jpg/image_00503'
p4446
aS'jpg/image_08122'
p4447
aS'jpg/image_04827'
p4448
aS'jpg/image_07990'
p4449
aS'jpg/image_04589'
p4450
aS'jpg/image_02574'
p4451
aS'jpg/image_01103'
p4452
aS'jpg/image_07418'
p4453
aS'jpg/image_01910'
p4454
aS'jpg/image_07546'
p4455
aS'jpg/image_01550'
p4456
aS'jpg/image_01112'
p4457
aS'jpg/image_05501'
p4458
aS'jpg/image_07878'
p4459
aS'jpg/image_00431'
p4460
aS'jpg/image_02984'
p4461
aS'jpg/image_06848'
p4462
aS'jpg/image_00783'
p4463
aS'jpg/image_07085'
p4464
aS'jpg/image_03708'
p4465
aS'jpg/image_06566'
p4466
aS'jpg/image_00816'
p4467
aS'jpg/image_03031'
p4468
aS'jpg/image_07769'
p4469
aS'jpg/image_07242'
p4470
aS'jpg/image_03960'
p4471
aS'jpg/image_05582'
p4472
aS'jpg/image_01367'
p4473
aS'jpg/image_04118'
p4474
aS'jpg/image_06899'
p4475
aS'jpg/image_00856'
p4476
aS'jpg/image_00793'
p4477
aS'jpg/image_04999'
p4478
aS'jpg/image_05257'
p4479
aS'jpg/image_01521'
p4480
aS'jpg/image_01223'
p4481
aS'jpg/image_07915'
p4482
aS'jpg/image_02937'
p4483
aS'jpg/image_00452'
p4484
aS'jpg/image_06856'
p4485
aS'jpg/image_05231'
p4486
aS'jpg/image_00418'
p4487
aS'jpg/image_05852'
p4488
aS'jpg/image_04500'
p4489
aS'jpg/image_04121'
p4490
aS'jpg/image_06908'
p4491
aS'jpg/image_04736'
p4492
aS'jpg/image_03241'
p4493
aS'jpg/image_00425'
p4494
aS'jpg/image_08183'
p4495
aS'jpg/image_02179'
p4496
aS'jpg/image_03572'
p4497
aS'jpg/image_01178'
p4498
aS'jpg/image_02885'
p4499
aS'jpg/image_00409'
p4500
aS'jpg/image_01431'
p4501
aS'jpg/image_01914'
p4502
aS'jpg/image_07752'
p4503
aS'jpg/image_02957'
p4504
aS'jpg/image_07032'
p4505
aS'jpg/image_05498'
p4506
aS'jpg/image_05945'
p4507
aS'jpg/image_02256'
p4508
aS'jpg/image_00357'
p4509
aS'jpg/image_03799'
p4510
aS'jpg/image_02068'
p4511
aS'jpg/image_02654'
p4512
aS'jpg/image_05069'
p4513
aS'jpg/image_03682'
p4514
aS'jpg/image_04159'
p4515
aS'jpg/image_01469'
p4516
aS'jpg/image_00242'
p4517
aS'jpg/image_00369'
p4518
aS'jpg/image_00136'
p4519
aS'jpg/image_06230'
p4520
aS'jpg/image_03756'
p4521
aS'jpg/image_01721'
p4522
aS'jpg/image_01399'
p4523
aS'jpg/image_06492'
p4524
aS'jpg/image_01306'
p4525
aS'jpg/image_01988'
p4526
aS'jpg/image_00670'
p4527
aS'jpg/image_00976'
p4528
aS'jpg/image_07373'
p4529
aS'jpg/image_07044'
p4530
aS'jpg/image_00004'
p4531
aS'jpg/image_07857'
p4532
aS'jpg/image_01345'
p4533
aS'jpg/image_02218'
p4534
aS'jpg/image_07552'
p4535
aS'jpg/image_02266'
p4536
aS'jpg/image_00931'
p4537
aS'jpg/image_05051'
p4538
aS'jpg/image_03487'
p4539
aS'jpg/image_07082'
p4540
aS'jpg/image_07704'
p4541
aS'jpg/image_00100'
p4542
aS'jpg/image_04998'
p4543
aS'jpg/image_00840'
p4544
aS'jpg/image_00962'
p4545
aS'jpg/image_07076'
p4546
aS'jpg/image_03809'
p4547
aS'jpg/image_06820'
p4548
aS'jpg/image_01075'
p4549
aS'jpg/image_02013'
p4550
aS'jpg/image_04714'
p4551
aS'jpg/image_00396'
p4552
aS'jpg/image_04514'
p4553
aS'jpg/image_02033'
p4554
aS'jpg/image_02304'
p4555
aS'jpg/image_04682'
p4556
aS'jpg/image_00165'
p4557
aS'jpg/image_04815'
p4558
aS'jpg/image_04174'
p4559
aS'jpg/image_06876'
p4560
aS'jpg/image_06043'
p4561
aS'jpg/image_07689'
p4562
aS'jpg/image_00995'
p4563
aS'jpg/image_04986'
p4564
aS'jpg/image_06814'
p4565
aS'jpg/image_02446'
p4566
aS'jpg/image_02640'
p4567
aS'jpg/image_02762'
p4568
aS'jpg/image_01358'
p4569
aS'jpg/image_03591'
p4570
aS'jpg/image_07997'
p4571
aS'jpg/image_02178'
p4572
aS'jpg/image_01637'
p4573
aS'jpg/image_02859'
p4574
aS'jpg/image_02959'
p4575
aS'jpg/image_02042'
p4576
aS'jpg/image_02109'
p4577
aS'jpg/image_01949'
p4578
aS'jpg/image_01370'
p4579
aS'jpg/image_04189'
p4580
aS'jpg/image_00706'
p4581
aS'jpg/image_00062'
p4582
aS'jpg/image_03203'
p4583
aS'jpg/image_05071'
p4584
aS'jpg/image_00384'
p4585
aS'jpg/image_07439'
p4586
aS'jpg/image_06511'
p4587
aS'jpg/image_05804'
p4588
aS'jpg/image_06441'
p4589
aS'jpg/image_00794'
p4590
aS'jpg/image_01789'
p4591
aS'jpg/image_00590'
p4592
aS'jpg/image_07691'
p4593
aS'jpg/image_05413'
p4594
aS'jpg/image_04814'
p4595
aS'jpg/image_05569'
p4596
aS'jpg/image_08125'
p4597
aS'jpg/image_06327'
p4598
aS'jpg/image_02595'
p4599
aS'jpg/image_07852'
p4600
aS'jpg/image_06890'
p4601
aS'jpg/image_02804'
p4602
aS'jpg/image_04808'
p4603
aS'jpg/image_01866'
p4604
aS'jpg/image_00088'
p4605
aS'jpg/image_01051'
p4606
aS'jpg/image_07125'
p4607
aS'jpg/image_01181'
p4608
aS'jpg/image_02580'
p4609
aS'jpg/image_05082'
p4610
aS'jpg/image_07293'
p4611
aS'jpg/image_04171'
p4612
aS'jpg/image_04419'
p4613
aS'jpg/image_03247'
p4614
aS'jpg/image_00253'
p4615
aS'jpg/image_02405'
p4616
aS'jpg/image_02133'
p4617
aS'jpg/image_04136'
p4618
aS'jpg/image_08004'
p4619
aS'jpg/image_05686'
p4620
aS'jpg/image_01980'
p4621
aS'jpg/image_00076'
p4622
aS'jpg/image_07366'
p4623
aS'jpg/image_01360'
p4624
aS'jpg/image_04214'
p4625
aS'jpg/image_02506'
p4626
aS'jpg/image_05701'
p4627
aS'jpg/image_04164'
p4628
aS'jpg/image_02663'
p4629
aS'jpg/image_02202'
p4630
aS'jpg/image_07489'
p4631
aS'jpg/image_06202'
p4632
aS'jpg/image_04639'
p4633
aS'jpg/image_05488'
p4634
aS'jpg/image_07861'
p4635
aS'jpg/image_06465'
p4636
aS'jpg/image_00504'
p4637
aS'jpg/image_04401'
p4638
aS'jpg/image_00648'
p4639
aS'jpg/image_04218'
p4640
aS'jpg/image_03210'
p4641
aS'jpg/image_00249'
p4642
aS'jpg/image_07069'
p4643
aS'jpg/image_07495'
p4644
aS'jpg/image_06984'
p4645
aS'jpg/image_06139'
p4646
aS'jpg/image_08162'
p4647
aS'jpg/image_07609'
p4648
aS'jpg/image_05955'
p4649
aS'jpg/image_01235'
p4650
aS'jpg/image_04350'
p4651
aS'jpg/image_05219'
p4652
aS'jpg/image_07274'
p4653
aS'jpg/image_02620'
p4654
aS'jpg/image_00707'
p4655
aS'jpg/image_06279'
p4656
aS'jpg/image_03717'
p4657
aS'jpg/image_07501'
p4658
aS'jpg/image_04101'
p4659
aS'jpg/image_03693'
p4660
aS'jpg/image_04716'
p4661
aS'jpg/image_02227'
p4662
aS'jpg/image_05258'
p4663
aS'jpg/image_00361'
p4664
aS'jpg/image_01024'
p4665
aS'jpg/image_07826'
p4666
aS'jpg/image_01134'
p4667
aS'jpg/image_04399'
p4668
aS'jpg/image_00286'
p4669
aS'jpg/image_04981'
p4670
aS'jpg/image_05846'
p4671
aS'jpg/image_06216'
p4672
aS'jpg/image_01046'
p4673
aS'jpg/image_04497'
p4674
aS'jpg/image_04326'
p4675
aS'jpg/image_07051'
p4676
aS'jpg/image_01630'
p4677
aS'jpg/image_06891'
p4678
aS'jpg/image_05073'
p4679
aS'jpg/image_02710'
p4680
aS'jpg/image_05356'
p4681
aS'jpg/image_06975'
p4682
aS'jpg/image_00183'
p4683
aS'jpg/image_04200'
p4684
aS'jpg/image_00766'
p4685
aS'jpg/image_07028'
p4686
aS'jpg/image_04795'
p4687
aS'jpg/image_03957'
p4688
aS'jpg/image_07630'
p4689
aS'jpg/image_05054'
p4690
aS'jpg/image_07470'
p4691
aS'jpg/image_05310'
p4692
aS'jpg/image_00038'
p4693
aS'jpg/image_01512'
p4694
aS'jpg/image_05444'
p4695
aS'jpg/image_01378'
p4696
aS'jpg/image_02435'
p4697
aS'jpg/image_05923'
p4698
aS'jpg/image_04195'
p4699
aS'jpg/image_07453'
p4700
aS'jpg/image_00278'
p4701
aS'jpg/image_01466'
p4702
aS'jpg/image_00660'
p4703
aS'jpg/image_02909'
p4704
aS'jpg/image_05560'
p4705
aS'jpg/image_05579'
p4706
aS'jpg/image_06728'
p4707
aS'jpg/image_02812'
p4708
aS'jpg/image_07628'
p4709
aS'jpg/image_02026'
p4710
aS'jpg/image_03033'
p4711
aS'jpg/image_05402'
p4712
aS'jpg/image_01041'
p4713
aS'jpg/image_04397'
p4714
aS'jpg/image_00819'
p4715
aS'jpg/image_07995'
p4716
aS'jpg/image_02722'
p4717
aS'jpg/image_06780'
p4718
aS'jpg/image_07677'
p4719
aS'jpg/image_05280'
p4720
aS'jpg/image_02697'
p4721
aS'jpg/image_03917'
p4722
aS'jpg/image_04598'
p4723
aS'jpg/image_00897'
p4724
aS'jpg/image_05995'
p4725
aS'jpg/image_05218'
p4726
aS'jpg/image_05233'
p4727
aS'jpg/image_06516'
p4728
aS'jpg/image_05844'
p4729
aS'jpg/image_00867'
p4730
aS'jpg/image_02517'
p4731
aS'jpg/image_04853'
p4732
aS'jpg/image_05234'
p4733
aS'jpg/image_02358'
p4734
aS'jpg/image_01156'
p4735
aS'jpg/image_01098'
p4736
aS'jpg/image_00023'
p4737
aS'jpg/image_05687'
p4738
aS'jpg/image_04477'
p4739
aS'jpg/image_02420'
p4740
aS'jpg/image_01597'
p4741
aS'jpg/image_00821'
p4742
aS'jpg/image_02930'
p4743
aS'jpg/image_04800'
p4744
aS'jpg/image_05016'
p4745
aS'jpg/image_07492'
p4746
aS'jpg/image_01709'
p4747
aS'jpg/image_00564'
p4748
aS'jpg/image_04843'
p4749
aS'jpg/image_05735'
p4750
aS'jpg/image_02089'
p4751
aS'jpg/image_07327'
p4752
aS'jpg/image_02587'
p4753
aS'jpg/image_02667'
p4754
aS'jpg/image_07029'
p4755
aS'jpg/image_03202'
p4756
aS'jpg/image_01750'
p4757
aS'jpg/image_04441'
p4758
aS'jpg/image_04091'
p4759
aS'jpg/image_02383'
p4760
aS'jpg/image_04771'
p4761
aS'jpg/image_01015'
p4762
aS'jpg/image_00643'
p4763
aS'jpg/image_00589'
p4764
aS'jpg/image_06969'
p4765
aS'jpg/image_02956'
p4766
aS'jpg/image_04755'
p4767
aS'jpg/image_03517'
p4768
aS'jpg/image_00177'
p4769
aS'jpg/image_05534'
p4770
aS'jpg/image_02743'
p4771
aS'jpg/image_01467'
p4772
aS'jpg/image_00140'
p4773
aS'jpg/image_06242'
p4774
aS'jpg/image_02340'
p4775
aS'jpg/image_05567'
p4776
aS'jpg/image_06726'
p4777
aS'jpg/image_02101'
p4778
aS'jpg/image_07927'
p4779
aS'jpg/image_01540'
p4780
aS'jpg/image_05022'
p4781
aS'jpg/image_05931'
p4782
aS'jpg/image_05232'
p4783
aS'jpg/image_05388'
p4784
aS'jpg/image_04659'
p4785
aS'jpg/image_05627'
p4786
aS'jpg/image_08176'
p4787
aS'jpg/image_04979'
p4788
aS'jpg/image_00137'
p4789
aS'jpg/image_03759'
p4790
aS'jpg/image_02148'
p4791
aS'jpg/image_01176'
p4792
aS'jpg/image_07770'
p4793
aS'jpg/image_04430'
p4794
aS'jpg/image_03569'
p4795
aS'jpg/image_00967'
p4796
aS'jpg/image_03633'
p4797
aS'jpg/image_04124'
p4798
aS'jpg/image_02294'
p4799
aS'jpg/image_05977'
p4800
aS'jpg/image_04606'
p4801
aS'jpg/image_04864'
p4802
aS'jpg/image_01265'
p4803
aS'jpg/image_06502'
p4804
aS'jpg/image_06716'
p4805
aS'jpg/image_01457'
p4806
aS'jpg/image_01043'
p4807
aS'jpg/image_00683'
p4808
aS'jpg/image_01315'
p4809
aS'jpg/image_05228'
p4810
aS'jpg/image_04661'
p4811
aS'jpg/image_01023'
p4812
aS'jpg/image_02088'
p4813
aS'jpg/image_00692'
p4814
aS'jpg/image_02153'
p4815
aS'jpg/image_07080'
p4816
aS'jpg/image_07935'
p4817
aS'jpg/image_07936'
p4818
aS'jpg/image_04509'
p4819
aS'jpg/image_01286'
p4820
aS'jpg/image_04768'
p4821
aS'jpg/image_06211'
p4822
aS'jpg/image_04194'
p4823
aS'jpg/image_07964'
p4824
aS'jpg/image_07445'
p4825
aS'jpg/image_06583'
p4826
aS'jpg/image_01734'
p4827
aS'jpg/image_00239'
p4828
aS'jpg/image_02733'
p4829
aS'jpg/image_04235'
p4830
aS'jpg/image_07654'
p4831
aS'jpg/image_03621'
p4832
aS'jpg/image_04115'
p4833
aS'jpg/image_03073'
p4834
aS'jpg/image_07576'
p4835
aS'jpg/image_07943'
p4836
aS'jpg/image_07986'
p4837
aS'jpg/image_03545'
p4838
aS'jpg/image_05843'
p4839
aS'jpg/image_02053'
p4840
aS'jpg/image_01604'
p4841
aS'jpg/image_00961'
p4842
aS'jpg/image_04335'
p4843
aS'jpg/image_05266'
p4844
aS'jpg/image_08049'
p4845
aS'jpg/image_07357'
p4846
aS'jpg/image_07993'
p4847
aS'jpg/image_04424'
p4848
aS'jpg/image_00642'
p4849
aS'jpg/image_00905'
p4850
aS'jpg/image_03420'
p4851
aS'jpg/image_07420'
p4852
aS'jpg/image_03567'
p4853
aS'jpg/image_07529'
p4854
aS'jpg/image_00453'
p4855
aS'jpg/image_03811'
p4856
aS'jpg/image_04969'
p4857
aS'jpg/image_07934'
p4858
aS'jpg/image_07760'
p4859
aS'jpg/image_07444'
p4860
aS'jpg/image_00264'
p4861
aS'jpg/image_01121'
p4862
aS'jpg/image_04490'
p4863
aS'jpg/image_01081'
p4864
aS'jpg/image_05422'
p4865
aS'jpg/image_04844'
p4866
aS'jpg/image_06601'
p4867
aS'jpg/image_00919'
p4868
aS'jpg/image_04223'
p4869
aS'jpg/image_03675'
p4870
aS'jpg/image_02452'
p4871
aS'jpg/image_03699'
p4872
aS'jpg/image_01757'
p4873
aS'jpg/image_03488'
p4874
aS'jpg/image_07333'
p4875
aS'jpg/image_07038'
p4876
aS'jpg/image_04125'
p4877
aS'jpg/image_04138'
p4878
aS'jpg/image_02673'
p4879
aS'jpg/image_07658'
p4880
aS'jpg/image_02254'
p4881
aS'jpg/image_06467'
p4882
aS'jpg/image_00419'
p4883
aS'jpg/image_03553'
p4884
aS'jpg/image_04527'
p4885
aS'jpg/image_03550'
p4886
aS'jpg/image_00486'
p4887
aS'jpg/image_07294'
p4888
aS'jpg/image_07787'
p4889
aS'jpg/image_07713'
p4890
aS'jpg/image_03274'
p4891
aS'jpg/image_07597'
p4892
aS'jpg/image_01868'
p4893
aS'jpg/image_02983'
p4894
aS'jpg/image_03543'
p4895
aS'jpg/image_02398'
p4896
aS'jpg/image_02050'
p4897
aS'jpg/image_04208'
p4898
aS'jpg/image_01563'
p4899
aS'jpg/image_05623'
p4900
aS'jpg/image_00025'
p4901
aS'jpg/image_03381'
p4902
aS'jpg/image_00957'
p4903
aS'jpg/image_06849'
p4904
aS'jpg/image_00523'
p4905
aS'jpg/image_00459'
p4906
aS'jpg/image_05570'
p4907
aS'jpg/image_04438'
p4908
aS'jpg/image_03598'
p4909
aS'jpg/image_05951'
p4910
aS'jpg/image_01448'
p4911
aS'jpg/image_00983'
p4912
aS'jpg/image_07754'
p4913
aS'jpg/image_01461'
p4914
aS'jpg/image_03958'
p4915
aS'jpg/image_02020'
p4916
aS'jpg/image_08021'
p4917
aS'jpg/image_03019'
p4918
aS'jpg/image_07796'
p4919
aS'jpg/image_02443'
p4920
aS'jpg/image_06219'
p4921
aS'jpg/image_05393'
p4922
aS'jpg/image_02724'
p4923
aS'jpg/image_05354'
p4924
aS'jpg/image_04891'
p4925
aS'jpg/image_00245'
p4926
aS'jpg/image_01482'
p4927
aS'jpg/image_05267'
p4928
aS'jpg/image_04215'
p4929
aS'jpg/image_05901'
p4930
aS'jpg/image_04120'
p4931
aS'jpg/image_04469'
p4932
aS'jpg/image_06044'
p4933
aS'jpg/image_01281'
p4934
aS'jpg/image_06145'
p4935
aS'jpg/image_00908'
p4936
aS'jpg/image_05729'
p4937
aS'jpg/image_05353'
p4938
aS'jpg/image_00676'
p4939
aS'jpg/image_02347'
p4940
aS'jpg/image_05601'
p4941
aS'jpg/image_02367'
p4942
aS'jpg/image_05800'
p4943
aS'jpg/image_04702'
p4944
aS'jpg/image_04428'
p4945
aS'jpg/image_03751'
p4946
aS'jpg/image_00393'
p4947
aS'jpg/image_07323'
p4948
aS'jpg/image_02819'
p4949
aS'jpg/image_00848'
p4950
aS'jpg/image_00464'
p4951
aS'jpg/image_02091'
p4952
aS'jpg/image_01194'
p4953
aS'jpg/image_05217'
p4954
aS'jpg/image_00138'
p4955
aS'jpg/image_00936'
p4956
aS'jpg/image_03489'
p4957
aS'jpg/image_02140'
p4958
aS'jpg/image_03920'
p4959
aS'jpg/image_06553'
p4960
aS'jpg/image_07084'
p4961
aS'jpg/image_07369'
p4962
aS'jpg/image_06880'
p4963
aS'jpg/image_00290'
p4964
aS'jpg/image_03611'
p4965
aS'jpg/image_06916'
p4966
aS'jpg/image_04786'
p4967
aS'jpg/image_05276'
p4968
aS'jpg/image_03961'
p4969
aS'jpg/image_05583'
p4970
aS'jpg/image_04482'
p4971
aS'jpg/image_00601'
p4972
aS'jpg/image_04719'
p4973
aS'jpg/image_07830'
p4974
aS'jpg/image_03604'
p4975
aS'jpg/image_05604'
p4976
aS'jpg/image_02041'
p4977
aS'jpg/image_06258'
p4978
aS'jpg/image_04570'
p4979
aS'jpg/image_06326'
p4980
aS'jpg/image_03406'
p4981
aS'jpg/image_05026'
p4982
aS'jpg/image_03918'
p4983
aS'jpg/image_06115'
p4984
aS'jpg/image_01562'
p4985
aS'jpg/image_08168'
p4986
aS'jpg/image_01423'
p4987
aS'jpg/image_00430'
p4988
aS'jpg/image_01762'
p4989
aS'jpg/image_05892'
p4990
aS'jpg/image_07802'
p4991
aS'jpg/image_06335'
p4992
aS'jpg/image_02422'
p4993
aS'jpg/image_01203'
p4994
aS'jpg/image_03028'
p4995
aS'jpg/image_00956'
p4996
aS'jpg/image_05355'
p4997
aS'jpg/image_00673'
p4998
aS'jpg/image_05425'
p4999
aS'jpg/image_08019'
p5000
aS'jpg/image_02416'
p5001
aS'jpg/image_03689'
p5002
aS'jpg/image_00202'
p5003
aS'jpg/image_03220'
p5004
aS'jpg/image_00862'
p5005
aS'jpg/image_00163'
p5006
aS'jpg/image_03280'
p5007
aS'jpg/image_04390'
p5008
aS'jpg/image_03040'
p5009
aS'jpg/image_02139'
p5010
aS'jpg/image_00054'
p5011
aS'jpg/image_04145'
p5012
aS'jpg/image_07947'
p5013
aS'jpg/image_06809'
p5014
aS'jpg/image_06447'
p5015
aS'jpg/image_01468'
p5016
aS'jpg/image_02947'
p5017
aS'jpg/image_06929'
p5018
aS'jpg/image_04468'
p5019
aS'jpg/image_00940'
p5020
aS'jpg/image_01706'
p5021
aS'jpg/image_04443'
p5022
aS'jpg/image_01483'
p5023
aS'jpg/image_00175'
p5024
aS'jpg/image_01126'
p5025
aS'jpg/image_05855'
p5026
aS'jpg/image_00977'
p5027
aS'jpg/image_05076'
p5028
aS'jpg/image_01574'
p5029
aS'jpg/image_07603'
p5030
aS'jpg/image_07393'
p5031
aS'jpg/image_00132'
p5032
aS'jpg/image_04444'
p5033
aS'jpg/image_01343'
p5034
aS'jpg/image_03825'
p5035
aS'jpg/image_07370'
p5036
aS'jpg/image_06605'
p5037
aS'jpg/image_00594'
p5038
aS'jpg/image_01222'
p5039
aS'jpg/image_02707'
p5040
aS'jpg/image_04626'
p5041
aS'jpg/image_00513'
p5042
aS'jpg/image_04562'
p5043
aS'jpg/image_07613'
p5044
aS'jpg/image_04365'
p5045
aS'jpg/image_06539'
p5046
aS'jpg/image_07368'
p5047
aS'jpg/image_05468'
p5048
aS'jpg/image_05526'
p5049
aS'jpg/image_06777'
p5050
aS'jpg/image_07383'
p5051
aS'jpg/image_05908'
p5052
aS'jpg/image_06821'
p5053
aS'jpg/image_00426'
p5054
aS'jpg/image_00194'
p5055
aS'jpg/image_03413'
p5056
aS'jpg/image_00864'
p5057
aS'jpg/image_06259'
p5058
aS'jpg/image_04515'
p5059
aS'jpg/image_02032'
p5060
aS'jpg/image_05363'
p5061
aS'jpg/image_01935'
p5062
aS'jpg/image_07432'
p5063
aS'jpg/image_00654'
p5064
aS'jpg/image_07313'
p5065
aS'jpg/image_00233'
p5066
aS'jpg/image_04971'
p5067
aS'jpg/image_07033'
p5068
aS'jpg/image_03254'
p5069
aS'jpg/image_03725'
p5070
aS'jpg/image_02080'
p5071
aS'jpg/image_00997'
p5072
aS'jpg/image_06898'
p5073
aS'jpg/image_08178'
p5074
aS'jpg/image_08126'
p5075
aS'jpg/image_02069'
p5076
aS'jpg/image_04735'
p5077
aS'jpg/image_02967'
p5078
aS'jpg/image_01428'
p5079
aS'jpg/image_03938'
p5080
aS'jpg/image_07072'
p5081
aS'jpg/image_04612'
p5082
aS'jpg/image_07789'
p5083
aS'jpg/image_04188'
p5084
aS'jpg/image_05404'
p5085
aS'jpg/image_07410'
p5086
aS'jpg/image_04442'
p5087
aS'jpg/image_03085'
p5088
aS'jpg/image_02309'
p5089
aS'jpg/image_04572'
p5090
aS'jpg/image_03777'
p5091
aS'jpg/image_05038'
p5092
aS'jpg/image_07040'
p5093
aS'jpg/image_00391'
p5094
aS'jpg/image_02891'
p5095
aS'jpg/image_05628'
p5096
aS'jpg/image_04652'
p5097
aS'jpg/image_05597'
p5098
aS'jpg/image_02293'
p5099
aS'jpg/image_02386'
p5100
aS'jpg/image_02447'
p5101
aS'jpg/image_01965'
p5102
aS'jpg/image_01398'
p5103
aS'jpg/image_03670'
p5104
aS'jpg/image_01132'
p5105
aS'jpg/image_02771'
p5106
aS'jpg/image_01678'
p5107
aS'jpg/image_07805'
p5108
aS'jpg/image_04673'
p5109
aS'jpg/image_06039'
p5110
aS'jpg/image_01928'
p5111
aS'jpg/image_04458'
p5112
aS'jpg/image_03440'
p5113
aS'jpg/image_06307'
p5114
aS'jpg/image_01815'
p5115
aS'jpg/image_05453'
p5116
aS'jpg/image_05015'
p5117
aS'jpg/image_06538'
p5118
aS'jpg/image_00834'
p5119
aS'jpg/image_05078'
p5120
aS'jpg/image_07979'
p5121
aS'jpg/image_00718'
p5122
aS'jpg/image_01193'
p5123
aS'jpg/image_03558'
p5124
aS'jpg/image_03069'
p5125
aS'jpg/image_04539'
p5126
aS'jpg/image_04997'
p5127
aS'jpg/image_01564'
p5128
aS'jpg/image_01455'
p5129
aS'jpg/image_05960'
p5130
aS'jpg/image_00089'
p5131
aS'jpg/image_06526'
p5132
aS'jpg/image_02716'
p5133
aS'jpg/image_01891'
p5134
aS'jpg/image_05362'
p5135
aS'jpg/image_03503'
p5136
aS'jpg/image_07860'
p5137
aS'jpg/image_05066'
p5138
aS'jpg/image_04416'
p5139
aS'jpg/image_07850'
p5140
aS'jpg/image_06707'
p5141
aS'jpg/image_01344'
p5142
aS'jpg/image_06000'
p5143
aS'jpg/image_07059'
p5144
aS'jpg/image_03724'
p5145
aS'jpg/image_00795'
p5146
aS'jpg/image_06579'
p5147
aS'jpg/image_04422'
p5148
aS'jpg/image_07686'
p5149
aS'jpg/image_00072'
p5150
aS'jpg/image_07315'
p5151
aS'jpg/image_04357'
p5152
aS'jpg/image_00630'
p5153
aS'jpg/image_05427'
p5154
aS'jpg/image_06850'
p5155
aS'jpg/image_03034'
p5156
aS'jpg/image_04238'
p5157
aS'jpg/image_07464'
p5158
aS'jpg/image_08114'
p5159
aS'jpg/image_07614'
p5160
aS'jpg/image_07329'
p5161
aS'jpg/image_01591'
p5162
aS'jpg/image_05374'
p5163
aS'jpg/image_00507'
p5164
aS'jpg/image_06474'
p5165
aS'jpg/image_06248'
p5166
aS'jpg/image_02387'
p5167
aS'jpg/image_02396'
p5168
aS'jpg/image_03736'
p5169
aS'jpg/image_06468'
p5170
aS'jpg/image_05259'
p5171
aS'jpg/image_00360'
p5172
aS'jpg/image_03249'
p5173
aS'jpg/image_00270'
p5174
aS'jpg/image_07957'
p5175
aS'jpg/image_04137'
p5176
aS'jpg/image_07728'
p5177
aS'jpg/image_07285'
p5178
aS'jpg/image_07512'
p5179
aS'jpg/image_03646'
p5180
aS'jpg/image_01981'
p5181
aS'jpg/image_02842'
p5182
aS'jpg/image_00143'
p5183
aS'jpg/image_04685'
p5184
aS'jpg/image_00842'
p5185
aS'jpg/image_05220'
p5186
aS'jpg/image_06032'
p5187
aS'jpg/image_07048'
p5188
aS'jpg/image_00421'
p5189
aS'jpg/image_00495'
p5190
aS'jpg/image_08050'
p5191
aS'jpg/image_06252'
p5192
aS'jpg/image_02201'
p5193
aS'jpg/image_01614'
p5194
aS'jpg/image_02460'
p5195
aS'jpg/image_00835'
p5196
aS'jpg/image_07273'
p5197
aS'jpg/image_03081'
p5198
aS'jpg/image_07631'
p5199
aS'jpg/image_03940'
p5200
aS'jpg/image_04953'
p5201
aS'jpg/image_01029'
p5202
aS'jpg/image_05546'
p5203
aS'jpg/image_04825'
p5204
aS'jpg/image_06339'
p5205
aS'jpg/image_02548'
p5206
aS'jpg/image_04761'
p5207
aS'jpg/image_05509'
p5208
aS'jpg/image_01801'
p5209
aS'jpg/image_04353'
p5210
aS'jpg/image_03939'
p5211
aS'jpg/image_00415'
p5212
aS'jpg/image_02908'
p5213
aS'jpg/image_06590'
p5214
aS'jpg/image_02458'
p5215
aS'jpg/image_03388'
p5216
aS'jpg/image_07359'
p5217
aS'jpg/image_00805'
p5218
aS'jpg/image_01035'
p5219
aS'jpg/image_04784'
p5220
aS'jpg/image_01890'
p5221
aS'jpg/image_05024'
p5222
aS'jpg/image_05479'
p5223
aS'jpg/image_04417'
p5224
aS'jpg/image_00184'
p5225
aS'jpg/image_00818'
p5226
aS'jpg/image_02320'
p5227
aS'jpg/image_02382'
p5228
aS'jpg/image_01214'
p5229
aS'jpg/image_04433'
p5230
aS'jpg/image_01575'
p5231
aS'jpg/image_07687'
p5232
aS'jpg/image_02056'
p5233
aS'jpg/image_04379'
p5234
aS'jpg/image_07746'
p5235
aS'jpg/image_04783'
p5236
aS'jpg/image_04980'
p5237
aS'jpg/image_04122'
p5238
aS'jpg/image_07405'
p5239
aS'jpg/image_01631'
p5240
aS'jpg/image_07777'
p5241
aS'jpg/image_04161'
p5242
aS'jpg/image_00911'
p5243
aS'jpg/image_02115'
p5244
aS'jpg/image_00701'
p5245
aS'jpg/image_02428'
p5246
aS'jpg/image_06521'
p5247
aS'jpg/image_03785'
p5248
aS'jpg/image_04467'
p5249
aS'jpg/image_03548'
p5250
aS'jpg/image_03014'
p5251
aS'jpg/image_02529'
p5252
aS'jpg/image_02632'
p5253
aS'jpg/image_02970'
p5254
aS'jpg/image_01163'
p5255
aS'jpg/image_05061'
p5256
aS'jpg/image_05321'
p5257
aS'jpg/image_07417'
p5258
aS'jpg/image_04516'
p5259
aS'jpg/image_04476'
p5260
aS'jpg/image_02421'
p5261
aS'jpg/image_01690'
p5262
aS'jpg/image_04406'
p5263
aS'jpg/image_07003'
p5264
aS'jpg/image_02931'
p5265
aS'jpg/image_04801'
p5266
aS'jpg/image_00539'
p5267
aS'jpg/image_02434'
p5268
aS'jpg/image_03062'
p5269
aS'jpg/image_05925'
p5270
aS'jpg/image_01299'
p5271
aS'jpg/image_06704'
p5272
aS'jpg/image_08017'
p5273
aS'jpg/image_00307'
p5274
aS'jpg/image_00524'
p5275
aS'jpg/image_00043'
p5276
aS'jpg/image_04616'
p5277
aS'jpg/image_02948'
p5278
aS'jpg/image_01525'
p5279
aS'jpg/image_02025'
p5280
aS'jpg/image_04972'
p5281
aS'jpg/image_03182'
p5282
aS'jpg/image_01745'
p5283
aS'jpg/image_04157'
p5284
aS'jpg/image_04990'
p5285
aS'jpg/image_05541'
p5286
aS'jpg/image_05414'
p5287
aS'jpg/image_04785'
p5288
aS'jpg/image_02392'
p5289
aS'jpg/image_05909'
p5290
aS'jpg/image_00588'
p5291
aS'jpg/image_04404'
p5292
aS'jpg/image_01598'
p5293
aS'jpg/image_03052'
p5294
aS'jpg/image_00169'
p5295
aS'jpg/image_03916'
p5296
aS'jpg/image_04389'
p5297
aS'jpg/image_04233'
p5298
aS'jpg/image_00352'
p5299
aS'jpg/image_07550'
p5300
aS'jpg/image_02680'
p5301
aS'jpg/image_00730'
p5302
aS'jpg/image_00247'
p5303
aS'jpg/image_00168'
p5304
aS'jpg/image_07461'
p5305
aS'jpg/image_08177'
p5306
aS'jpg/image_01717'
p5307
aS'jpg/image_08057'
p5308
aS'jpg/image_06938'
p5309
aS'jpg/image_07535'
p5310
aS'jpg/image_03505'
p5311
aS'jpg/image_03454'
p5312
aS'jpg/image_07424'
p5313
aS'jpg/image_04226'
p5314
aS'jpg/image_07493'
p5315
aS'jpg/image_00329'
p5316
aS'jpg/image_02546'
p5317
aS'jpg/image_06897'
p5318
aS'jpg/image_06905'
p5319
aS'jpg/image_06460'
p5320
aS'jpg/image_04874'
p5321
aS'jpg/image_02480'
p5322
aS'jpg/image_04204'
p5323
aS'jpg/image_01032'
p5324
aS'jpg/image_00614'
p5325
aS'jpg/image_07912'
p5326
aS'jpg/image_02675'
p5327
aS'jpg/image_01109'
p5328
aS'jpg/image_01387'
p5329
aS'jpg/image_08165'
p5330
aS'jpg/image_03276'
p5331
aS'jpg/image_02809'
p5332
aS'jpg/image_00078'
p5333
aS'jpg/image_07965'
p5334
aS'jpg/image_06582'
p5335
aS'jpg/image_02725'
p5336
aS'jpg/image_00087'
p5337
aS'jpg/image_06310'
p5338
aS'jpg/image_06967'
p5339
aS'jpg/image_03063'
p5340
aS'jpg/image_00047'
p5341
aS'jpg/image_06243'
p5342
aS'jpg/image_00104'
p5343
aS'jpg/image_05455'
p5344
aS'jpg/image_02375'
p5345
aS'jpg/image_06972'
p5346
aS'jpg/image_05826'
p5347
aS'jpg/image_04581'
p5348
aS'jpg/image_07400'
p5349
aS'jpg/image_04090'
p5350
aS'jpg/image_04988'
p5351
aS'jpg/image_08077'
p5352
aS'jpg/image_02968'
p5353
aS'jpg/image_05863'
p5354
aS'jpg/image_05504'
p5355
aS'jpg/image_03514'
p5356
aS'jpg/image_01599'
p5357
aS'jpg/image_01499'
p5358
aS'jpg/image_05978'
p5359
aS'jpg/image_07795'
p5360
aS'jpg/image_00265'
p5361
aS'jpg/image_00891'
p5362
aS'jpg/image_05406'
p5363
aS'jpg/image_04608'
p5364
aS'jpg/image_00887'
p5365
aS'jpg/image_04193'
p5366
aS'jpg/image_02737'
p5367
aS'jpg/image_02268'
p5368
aS'jpg/image_03667'
p5369
aS'jpg/image_01314'
p5370
aS'jpg/image_01460'
p5371
aS'jpg/image_06933'
p5372
aS'jpg/image_00885'
p5373
aS'jpg/image_06837'
p5374
aS'jpg/image_01269'
p5375
aS'jpg/image_07703'
p5376
aS'jpg/image_00738'
p5377
aS'jpg/image_02630'
p5378
aS'jpg/image_01777'
p5379
aS'jpg/image_07350'
p5380
aS'jpg/image_01108'
p5381
aS'jpg/image_07712'
p5382
aS'jpg/image_05278'
p5383
aS'jpg/image_05394'
p5384
aS'jpg/image_02982'
p5385
aS'jpg/image_04648'
p5386
aS'jpg/image_04507'
p5387
aS'jpg/image_02510'
p5388
aS'jpg/image_00849'
p5389
aS'jpg/image_05842'
p5390
aS'jpg/image_01944'
p5391
aS'jpg/image_02087'
p5392
aS'jpg/image_06295'
p5393
aS'jpg/image_05932'
p5394
aS'jpg/image_07695'
p5395
aS'jpg/image_04699'
p5396
aS'jpg/image_01116'
p5397
aS'jpg/image_06910'
p5398
aS'jpg/image_07447'
p5399
aS'jpg/image_08016'
p5400
aS'jpg/image_07065'
p5401
aS'jpg/image_07321'
p5402
aS'jpg/image_07423'
p5403
aS'jpg/image_02204'
p5404
aS'jpg/image_05315'
p5405
aS'jpg/image_00170'
p5406
aS'jpg/image_01665'
p5407
aS'jpg/image_01250'
p5408
aS'jpg/image_06229'
p5409
aS'jpg/image_02374'
p5410
aS'jpg/image_04708'
p5411
aS'jpg/image_03547'
p5412
aS'jpg/image_01080'
p5413
aS'jpg/image_02739'
p5414
aS'jpg/image_01149'
p5415
aS'jpg/image_07824'
p5416
aS'jpg/image_00779'
p5417
aS'jpg/image_01854'
p5418
aS'jpg/image_07778'
p5419
aS'jpg/image_07892'
p5420
aS'jpg/image_01756'
p5421
aS'jpg/image_06694'
p5422
aS'jpg/image_00872'
p5423
aS'jpg/image_05391'
p5424
aS'jpg/image_01760'
p5425
aS'jpg/image_00644'
p5426
aS'jpg/image_05976'
p5427
aS'jpg/image_03616'
p5428
aS'jpg/image_06283'
p5429
aS'jpg/image_02853'
p5430
aS'jpg/image_00668'
p5431
aS'jpg/image_06308'
p5432
aS'jpg/image_05574'
p5433
aS'jpg/image_02154'
p5434
aS'jpg/image_02366'
p5435
aS'jpg/image_07269'
p5436
aS'jpg/image_04429'
p5437
aS'jpg/image_06486'
p5438
aS'jpg/image_03750'
p5439
aS'jpg/image_07599'
p5440
aS'jpg/image_03020'
p5441
aS'jpg/image_06987'
p5442
aS'jpg/image_08061'
p5443
aS'jpg/image_02399'
p5444
aS'jpg/image_07054'
p5445
aS'jpg/image_01986'
p5446
aS'jpg/image_06591'
p5447
aS'jpg/image_04112'
p5448
aS'jpg/image_01459'
p5449
aS'jpg/image_05705'
p5450
aS'jpg/image_05938'
p5451
aS'jpg/image_02955'
p5452
aS'jpg/image_04450'
p5453
aS'jpg/image_01262'
p5454
aS'jpg/image_00466'
p5455
aS'jpg/image_01353'
p5456
aS'jpg/image_00152'
p5457
aS'jpg/image_04873'
p5458
aS'jpg/image_00824'
p5459
aS'jpg/image_04175'
p5460
aS'jpg/image_03473'
p5461
aS'jpg/image_02910'
p5462
aS'jpg/image_07377'
p5463
aS'jpg/image_02039'
p5464
aS'jpg/image_03549'
p5465
aS'jpg/image_04620'
p5466
aS'jpg/image_07675'
p5467
aS'jpg/image_01749'
p5468
aS'jpg/image_00613'
p5469
aS'jpg/image_06218'
p5470
aS'jpg/image_00633'
p5471
aS'jpg/image_00852'
p5472
aS'jpg/image_02969'
p5473
aS'jpg/image_08018'
p5474
aS'jpg/image_03927'
p5475
aS'jpg/image_07887'
p5476
aS'jpg/image_00022'
p5477
aS'jpg/image_01933'
p5478
aS'jpg/image_04614'
p5479
aS'jpg/image_05798'
p5480
aS'jpg/image_00040'
p5481
aS'jpg/image_00162'
p5482
aS'jpg/image_04668'
p5483
aS'jpg/image_00778'
p5484
aS'jpg/image_07037'
p5485
aS'jpg/image_06597'
p5486
aS'jpg/image_06889'
p5487
aS'jpg/image_02232'
p5488
aS'jpg/image_02669'
p5489
aS'jpg/image_02090'
p5490
aS'jpg/image_02380'
p5491
aS'jpg/image_04178'
p5492
aS'jpg/image_07578'
p5493
aS'jpg/image_06103'
p5494
aS'jpg/image_06144'
p5495
aS'jpg/image_01383'
p5496
aS'jpg/image_01111'
p5497
aS'jpg/image_00203'
p5498
aS'jpg/image_02598'
p5499
aS'jpg/image_05603'
p5500
aS'jpg/image_06309'
p5501
aS'jpg/image_08060'
p5502
aS'jpg/image_03607'
p5503
aS'jpg/image_00395'
p5504
aS'jpg/image_02696'
p5505
aS'jpg/image_03973'
p5506
aS'jpg/image_04690'
p5507
aS'jpg/image_03207'
p5508
aS'jpg/image_06273'
p5509
aS'jpg/image_02706'
p5510
aS'jpg/image_07651'
p5511
aS'jpg/image_00937'
p5512
aS'jpg/image_06862'
p5513
aS'jpg/image_07781'
p5514
aS'jpg/image_00380'
p5515
aS'jpg/image_07406'
p5516
aS'jpg/image_07378'
p5517
aS'jpg/image_05893'
p5518
aS'jpg/image_03398'
p5519
aS'jpg/image_04483'
p5520
aS'jpg/image_07813'
p5521
aS'jpg/image_08058'
p5522
aS'jpg/image_00773'
p5523
aS'jpg/image_00446'
p5524
aS'jpg/image_07560'
p5525
aS'jpg/image_04627'
p5526
aS'jpg/image_04381'
p5527
aS'jpg/image_07907'
p5528
aS'jpg/image_05079'
p5529
aS'jpg/image_08145'
p5530
aS'jpg/image_02543'
p5531
aS'jpg/image_03262'
p5532
aS'jpg/image_00063'
p5533
aS'jpg/image_02946'
p5534
aS'jpg/image_02699'
p5535
aS'jpg/image_03762'
p5536
aS'jpg/image_06500'
p5537
aS'jpg/image_01707'
p5538
aS'jpg/image_05261'
p5539
aS'jpg/image_03017'
p5540
aS'jpg/image_03518'
p5541
aS'jpg/image_01565'
p5542
aS'jpg/image_01896'
p5543
aS'jpg/image_06810'
p5544
aS'jpg/image_00190'
p5545
aS'jpg/image_06998'
p5546
aS'jpg/image_06565'
p5547
aS'jpg/image_06888'
p5548
aS'jpg/image_06611'
p5549
aS'jpg/image_04975'
p5550
aS'jpg/image_00349'
p5551
aS'jpg/image_06332'
p5552
aS'jpg/image_00969'
p5553
aS'jpg/image_07435'
p5554
aS'jpg/image_05823'
p5555
aS'jpg/image_05874'
p5556
aS'jpg/image_03568'
p5557
aS'jpg/image_04817'
p5558
aS'jpg/image_02565'
p5559
aS'jpg/image_01333'
p5560
aS'jpg/image_03208'
p5561
aS'jpg/image_03719'
p5562
aS'jpg/image_05506'
p5563
aS'jpg/image_01414'
p5564
aS'jpg/image_00427'
p5565
aS'jpg/image_01687'
p5566
aS'jpg/image_07624'
p5567
aS'jpg/image_05226'
p5568
aS'jpg/image_07734'
p5569
aS'jpg/image_00285'
p5570
aS'jpg/image_03776'
p5571
aS'jpg/image_04544'
p5572
aS'jpg/image_01323'
p5573
aS'jpg/image_00371'
p5574
aS'jpg/image_02952'
p5575
aS'jpg/image_07030'
p5576
aS'jpg/image_00091'
p5577
aS'jpg/image_04691'
p5578
aS'jpg/image_03516'
p5579
aS'jpg/image_05927'
p5580
aS'jpg/image_04133'
p5581
aS'jpg/image_01487'
p5582
aS'jpg/image_05470'
p5583
aS'jpg/image_00300'
p5584
aS'jpg/image_01092'
p5585
aS'jpg/image_01621'
p5586
aS'jpg/image_03697'
p5587
aS'jpg/image_00308'
p5588
aS'jpg/image_07322'
p5589
aS'jpg/image_01973'
p5590
aS'jpg/image_00950'
p5591
aS'jpg/image_00750'
p5592
aS'jpg/image_08131'
p5593
aS'jpg/image_07312'
p5594
aS'jpg/image_05967'
p5595
aS'jpg/image_06287'
p5596
aS'jpg/image_02098'
p5597
aS'jpg/image_00235'
p5598
aS'jpg/image_08078'
p5599
aS'jpg/image_04387'
p5600
aS'jpg/image_07137'
p5601
aS'jpg/image_05077'
p5602
aS'jpg/image_04760'
p5603
aS'jpg/image_01645'
p5604
aS'jpg/image_03596'
p5605
aS'jpg/image_07988'
p5606
aS'jpg/image_01588'
p5607
aS'jpg/image_07266'
p5608
aS'jpg/image_04737'
p5609
aS'jpg/image_00220'
p5610
aS'jpg/image_00948'
p5611
aS'jpg/image_04437'
p5612
aS'jpg/image_03035'
p5613
aS'jpg/image_00251'
p5614
aS'jpg/image_04236'
p5615
aS'jpg/image_07804'
p5616
aS'jpg/image_06718'
p5617
aS'jpg/image_02457'
p5618
aS'jpg/image_01313'
p5619
aS'jpg/image_02701'
p5620
aS'jpg/image_05006'
p5621
aS'jpg/image_07316'
p5622
aS'jpg/image_05442'
p5623
aS'jpg/image_00651'
p5624
aS'jpg/image_05039'
p5625
aS'jpg/image_02872'
p5626
aS'jpg/image_02138'
p5627
aS'jpg/image_00917'
p5628
aS'jpg/image_07971'
p5629
aS'jpg/image_07154'
p5630
aS'jpg/image_00097'
p5631
aS'jpg/image_01405'
p5632
aS'jpg/image_01076'
p5633
aS'jpg/image_03656'
p5634
aS'jpg/image_03507'
p5635
aS'jpg/image_00122'
p5636
aS'jpg/image_00406'
p5637
aS'jpg/image_00744'
p5638
aS'jpg/image_06700'
p5639
aS'jpg/image_08163'
p5640
aS'jpg/image_04408'
p5641
aS'jpg/image_05031'
p5642
aS'jpg/image_03795'
p5643
aS'jpg/image_00558'
p5644
aS'jpg/image_07756'
p5645
aS'jpg/image_07698'
p5646
aS'jpg/image_00204'
p5647
aS'jpg/image_03502'
p5648
aS'jpg/image_00996'
p5649
aS'jpg/image_07348'
p5650
aS'jpg/image_07397'
p5651
aS'jpg/image_06537'
p5652
aS'jpg/image_02556'
p5653
aS'jpg/image_04531'
p5654
aS'jpg/image_07123'
p5655
aS'jpg/image_01882'
p5656
aS'jpg/image_01480'
p5657
aS'jpg/image_00725'
p5658
aS'jpg/image_00094'
p5659
aS'jpg/image_07018'
p5660
aS'jpg/image_01696'
p5661
aS'jpg/image_00689'
p5662
aS'jpg/image_05435'
p5663
aS'jpg/image_00387'
p5664
aS'jpg/image_01841'
p5665
aS'jpg/image_00067'
p5666
aS'jpg/image_07814'
p5667
aS'jpg/image_02740'
p5668
aS'jpg/image_07436'
p5669
aS'jpg/image_00309'
p5670
aS'jpg/image_07150'
p5671
aS'jpg/image_03465'
p5672
aS'jpg/image_01962'
p5673
aS'jpg/image_05571'
p5674
aS'jpg/image_00583'
p5675
aS'jpg/image_07615'
p5676
aS'jpg/image_00753'
p5677
aS'jpg/image_07523'
p5678
aS'jpg/image_04703'
p5679
aS'jpg/image_07456'
p5680
aS'jpg/image_04769'
p5681
aS'jpg/image_06001'
p5682
aS'jpg/image_07267'
p5683
aS'jpg/image_05482'
p5684
aS'jpg/image_03722'
p5685
aS'jpg/image_02799'
p5686
aS'jpg/image_06121'
p5687
aS'jpg/image_00540'
p5688
aS'jpg/image_03206'
p5689
aS'jpg/image_02260'
p5690
aS'jpg/image_06872'
p5691
aS'jpg/image_04134'
p5692
aS'jpg/image_01778'
p5693
aS'jpg/image_03684'
p5694
aS'jpg/image_02300'
p5695
aS'jpg/image_00850'
p5696
aS'jpg/image_01823'
p5697
aS'jpg/image_01993'
p5698
aS'jpg/image_06224'
p5699
aS'jpg/image_01590'
p5700
aS'jpg/image_00494'
p5701
aS'jpg/image_04355'
p5702
aS'jpg/image_04968'
p5703
aS'jpg/image_08045'
p5704
aS'jpg/image_03588'
p5705
aS'jpg/image_05809'
p5706
aS'jpg/image_07257'
p5707
aS'jpg/image_03478'
p5708
aS'jpg/image_07515'
p5709
aS'jpg/image_01381'
p5710
aS'jpg/image_07773'
p5711
aS'jpg/image_07623'
p5712
aS'jpg/image_04160'
p5713
aS'jpg/image_03634'
p5714
aS'jpg/image_01213'
p5715
aS'jpg/image_00688'
p5716
aS'jpg/image_03482'
p5717
aS'jpg/image_08000'
p5718
aS'jpg/image_05334'
p5719
aS'jpg/image_00193'
p5720
aS'jpg/image_04372'
p5721
aS'jpg/image_04540'
p5722
aS'jpg/image_06589'
p5723
aS'jpg/image_00439'
p5724
aS'jpg/image_07486'
p5725
aS'jpg/image_02486'
p5726
aS'jpg/image_06445'
p5727
aS'jpg/image_03771'
p5728
aS'jpg/image_05364'
p5729
aS'jpg/image_04642'
p5730
aS'jpg/image_07008'
p5731
aS'jpg/image_05724'
p5732
aS'jpg/image_08160'
p5733
aS'jpg/image_00266'
p5734
aS'jpg/image_08079'
p5735
aS'jpg/image_05918'
p5736
aS'jpg/image_02977'
p5737
aS'jpg/image_07655'
p5738
aS'jpg/image_00696'
p5739
aS'jpg/image_03690'
p5740
aS'jpg/image_04232'
p5741
aS'jpg/image_01938'
p5742
aS'jpg/image_02524'
p5743
aS'jpg/image_07931'
p5744
aS'jpg/image_05821'
p5745
aS'jpg/image_05957'
p5746
aS'jpg/image_05830'
p5747
aS'jpg/image_06941'
p5748
aS'jpg/image_03090'
p5749
aS'jpg/image_00700'
p5750
aS'jpg/image_06520'
p5751
aS'jpg/image_00291'
p5752
aS'jpg/image_03258'
p5753
aS'jpg/image_01533'
p5754
aS'jpg/image_00764'
p5755
aS'jpg/image_00462'
p5756
aS'jpg/image_07721'
p5757
aS'jpg/image_02547'
p5758
aS'jpg/image_07334'
p5759
aS'jpg/image_03984'
p5760
aS'jpg/image_07062'
p5761
aS'jpg/image_07681'
p5762
aS'jpg/image_04167'
p5763
aS'jpg/image_00980'
p5764
aS'jpg/image_03789'
p5765
aS'jpg/image_03053'
p5766
aS'jpg/image_06887'
p5767
aS'jpg/image_01779'
p5768
aS'jpg/image_01060'
p5769
aS'jpg/image_00924'
p5770
aS'jpg/image_02875'
p5771
aS'jpg/image_07157'
p5772
aS'jpg/image_02593'
p5773
aS'jpg/image_01488'
p5774
aS'jpg/image_00318'
p5775
aS'jpg/image_04197'
p5776
aS'jpg/image_06896'
p5777
aS'jpg/image_02923'
p5778
aS'jpg/image_01894'
p5779
aS'jpg/image_05553'
p5780
aS'jpg/image_00938'
p5781
aS'jpg/image_06904'
p5782
aS'jpg/image_05446'
p5783
aS'jpg/image_03015'
p5784
aS'jpg/image_07465'
p5785
aS'jpg/image_04186'
p5786
aS'jpg/image_05894'
p5787
aS'jpg/image_03183'
p5788
aS'jpg/image_02045'
p5789
aS'jpg/image_00833'
p5790
aS'jpg/image_05612'
p5791
aS'jpg/image_02708'
p5792
aS'jpg/image_02830'
p5793
aS'jpg/image_05741'
p5794
aS'jpg/image_06997'
p5795
aS'jpg/image_05802'
p5796
aS'jpg/image_07696'
p5797
aS'jpg/image_00598'
p5798
aS'jpg/image_04331'
p5799
aS'jpg/image_00650'
p5800
aS'jpg/image_03216'
p5801
aS'jpg/image_00007'
p5802
aS'jpg/image_06530'
p5803
aS'jpg/image_02481'
p5804
aS'jpg/image_02424'
p5805
aS'jpg/image_00146'
p5806
aS'jpg/image_07363'
p5807
aS'jpg/image_04649'
p5808
aS'jpg/image_00479'
p5809
aS'jpg/image_04625'
p5810
aS'jpg/image_07595'
p5811
aS'jpg/image_03399'
p5812
aS'jpg/image_07949'
p5813
aS'jpg/image_06795'
p5814
aS'jpg/image_06293'
p5815
aS'jpg/image_02332'
p5816
aS'jpg/image_01130'
p5817
aS'jpg/image_01700'
p5818
aS'jpg/image_04411'
p5819
aS'jpg/image_02738'
p5820
aS'jpg/image_04734'
p5821
aS'jpg/image_07248'
p5822
aS'jpg/image_00874'
p5823
aS'jpg/image_07261'
p5824
aS'jpg/image_00332'
p5825
aS'jpg/image_05903'
p5826
aS'jpg/image_01816'
p5827
aS'jpg/image_01155'
p5828
aS'jpg/image_00890'
p5829
aS'jpg/image_03779'
p5830
aS'jpg/image_03385'
p5831
aS'jpg/image_06285'
p5832
aS'jpg/image_02229'
p5833
aS'jpg/image_07282'
p5834
aS'jpg/image_06317'
p5835
aS'jpg/image_05972'
p5836
aS'jpg/image_01084'
p5837
aS'jpg/image_03968'
p5838
aS'jpg/image_04580'
p5839
aS'jpg/image_07481'
p5840
aS'jpg/image_04895'
p5841
aS'jpg/image_01033'
p5842
aS'jpg/image_04362'
p5843
aS'jpg/image_02349'
p5844
aS'jpg/image_02469'
p5845
aS'jpg/image_00547'
p5846
aS'jpg/image_00567'
p5847
aS'jpg/image_05691'
p5848
aS'jpg/image_03277'
p5849
aS'jpg/image_00403'
p5850
aS'jpg/image_02883'
p5851
aS'jpg/image_03951'
p5852
aS'jpg/image_01489'
p5853
aS'jpg/image_01893'
p5854
aS'jpg/image_00691'
p5855
aS'jpg/image_02326'
p5856
aS'jpg/image_00740'
p5857
aS'jpg/image_03741'
p5858
aS'jpg/image_08042'
p5859
aS'jpg/image_06240'
p5860
aS'jpg/image_05969'
p5861
aS'jpg/image_04680'
p5862
aS'jpg/image_00407'
p5863
aS'jpg/image_00989'
p5864
aS'jpg/image_08150'
p5865
aS'jpg/image_04240'
p5866
aS'jpg/image_01945'
p5867
aS'jpg/image_07349'
p5868
aS'jpg/image_02912'
p5869
aS'jpg/image_05230'
p5870
aS'jpg/image_02915'
p5871
aS'jpg/image_03738'
p5872
aS'jpg/image_05341'
p5873
aS'jpg/image_05905'
p5874
aS'jpg/image_06921'
p5875
aS'jpg/image_06966'
p5876
aS'jpg/image_06528'
p5877
aS'jpg/image_02242'
p5878
aS'jpg/image_03065'
p5879
aS'jpg/image_01471'
p5880
aS'jpg/image_03615'
p5881
aS'jpg/image_07403'
p5882
aS'jpg/image_03472'
p5883
aS'jpg/image_06294'
p5884
aS'jpg/image_03089'
p5885
aS'jpg/image_03445'
p5886
aS'jpg/image_07459'
p5887
aS'jpg/image_05819'
p5888
aS'jpg/image_02038'
p5889
aS'jpg/image_01861'
p5890
aS'jpg/image_04478'
p5891
aS'jpg/image_02430'
p5892
aS'jpg/image_06320'
p5893
aS'jpg/image_01676'
p5894
aS'jpg/image_06471'
p5895
aS'jpg/image_07000'
p5896
aS'jpg/image_03788'
p5897
aS'jpg/image_00739'
p5898
aS'jpg/image_07325'
p5899
aS'jpg/image_03552'
p5900
aS'jpg/image_07883'
p5901
aS'jpg/image_07577'
p5902
aS'jpg/image_04609'
p5903
aS'jpg/image_03647'
p5904
aS'jpg/image_07268'
p5905
aS'jpg/image_01800'
p5906
aS'jpg/image_02786'
p5907
aS'jpg/image_04729'
p5908
aS'jpg/image_05558'
p5909
aS'jpg/image_07134'
p5910
aS'jpg/image_00780'
p5911
aS'jpg/image_07283'
p5912
aS'jpg/image_06828'
p5913
aS'jpg/image_07726'
p5914
aS'jpg/image_01662'
p5915
aS'jpg/image_05385'
p5916
aS'jpg/image_04336'
p5917
aS'jpg/image_07893'
p5918
aS'jpg/image_02299'
p5919
aS'jpg/image_06792'
p5920
aS'jpg/image_03239'
p5921
aS'jpg/image_00963'
p5922
aS'jpg/image_05993'
p5923
aS'jpg/image_07543'
p5924
aS'jpg/image_04464'
p5925
aS'jpg/image_03054'
p5926
aS'jpg/image_06954'
p5927
aS'jpg/image_03070'
p5928
aS'jpg/image_07422'
p5929
aS'jpg/image_00107'
p5930
aS'jpg/image_00930'
p5931
aS'jpg/image_01107'
p5932
aS'jpg/image_07941'
p5933
aS'jpg/image_03485'
p5934
aS'jpg/image_03382'
p5935
aS'jpg/image_02854'
p5936
aS'jpg/image_03812'
p5937
aS'jpg/image_06487'
p5938
aS'jpg/image_00973'
p5939
aS'jpg/image_02044'
p5940
aS'jpg/image_00448'
p5941
aS'jpg/image_03257'
p5942
aS'jpg/image_04181'
p5943
aS'jpg/image_05983'
p5944
aS'jpg/image_05030'
p5945
aS'jpg/image_04621'
p5946
aS'jpg/image_01083'
p5947
aS'jpg/image_04569'
p5948
aS'jpg/image_05047'
p5949
aS'jpg/image_02746'
p5950
aS'jpg/image_03739'
p5951
aS'jpg/image_00632'
p5952
aS'jpg/image_02615'
p5953
aS'jpg/image_03573'
p5954
aS'jpg/image_01454'
p5955
aS'jpg/image_00712'
p5956
aS'jpg/image_05913'
p5957
aS'jpg/image_02958'
p5958
aS'jpg/image_07903'
p5959
aS'jpg/image_03710'
p5960
aS'jpg/image_04698'
p5961
aS'jpg/image_05245'
p5962
aS'jpg/image_01069'
p5963
aS'jpg/image_01920'
p5964
aS'jpg/image_00669'
p5965
aS'jpg/image_01251'
p5966
aS'jpg/image_02427'
p5967
aS'jpg/image_07462'
p5968
aS'jpg/image_02372'
p5969
aS'jpg/image_03610'
p5970
aS'jpg/image_06130'
p5971
aS'jpg/image_01511'
p5972
aS'jpg/image_07376'
p5973
aS'jpg/image_05487'
p5974
aS'jpg/image_01093'
p5975
aS'jpg/image_01316'
p5976
aS'jpg/image_04511'
p5977
aS'jpg/image_02036'
p5978
aS'jpg/image_04089'
p5979
aS'jpg/image_06710'
p5980
aS'jpg/image_02566'
p5981
aS'jpg/image_00537'
p5982
aS'jpg/image_04213'
p5983
aS'jpg/image_01545'
p5984
aS'jpg/image_05609'
p5985
aS'jpg/image_02826'
p5986
aS'jpg/image_01209'
p5987
aS'jpg/image_00509'
p5988
aS'jpg/image_00609'
p5989
aS'jpg/image_04528'
p5990
aS'jpg/image_01166'
p5991
aS'jpg/image_00493'
p5992
aS'jpg/image_01728'
p5993
aS'jpg/image_00586'
p5994
aS'jpg/image_05962'
p5995
aS'jpg/image_07588'
p5996
aS'jpg/image_00787'
p5997
aS'jpg/image_02645'
p5998
aS'jpg/image_07598'
p5999
aS'jpg/image_07732'
p6000
aS'jpg/image_05411'
p6001
aS'jpg/image_03972'
p6002
aS'jpg/image_02006'
p6003
aS'jpg/image_02608'
p6004
aS'jpg/image_06545'
p6005
aS'jpg/image_04110'
p6006
aS'jpg/image_03627'
p6007
aS'jpg/image_03666'
p6008
aS'jpg/image_05057'
p6009
aS'jpg/image_04216'
p6010
aS'jpg/image_07441'
p6011
aS'jpg/image_00114'
p6012
aS'jpg/image_06102'
p6013
aS'jpg/image_06973'
p6014
aS'jpg/image_00400'
p6015
aS'jpg/image_03790'
p6016
aS'jpg/image_05379'
p6017
aS'jpg/image_05946'
p6018
aS'jpg/image_02321'
p6019
aS'jpg/image_04963'
p6020
aS'jpg/image_03414'
p6021
aS'jpg/image_03496'
p6022
aS'jpg/image_05535'
p6023
aS'jpg/image_02244'
p6024
aS'jpg/image_00211'
p6025
aS'jpg/image_00151'
p6026
aS'jpg/image_06546'
p6027
aS'jpg/image_03474'
p6028
aS'jpg/image_05476'
p6029
aS'jpg/image_00555'
p6030
aS'jpg/image_07340'
p6031
aS'jpg/image_05436'
p6032
aS'jpg/image_05260'
p6033
aS'jpg/image_05702'
p6034
aS'jpg/image_02171'
p6035
aS'jpg/image_03227'
p6036
aS'jpg/image_07544'
p6037
aS'jpg/image_00379'
p6038
aS'jpg/image_01110'
p6039
aS'jpg/image_07888'
p6040
aS'jpg/image_07570'
p6041
aS'jpg/image_07331'
p6042
aS'jpg/image_06338'
p6043
aS'jpg/image_04733'
p6044
aS'jpg/image_04650'
p6045
aS'jpg/image_05512'
p6046
aS'jpg/image_01544'
p6047
aS'jpg/image_00974'
p6048
aS'jpg/image_01445'
p6049
aS'jpg/image_01654'
p6050
aS'jpg/image_07391'
p6051
aS'jpg/image_07864'
p6052
aS'jpg/image_00256'
p6053
aS'jpg/image_03002'
p6054
aS'jpg/image_03728'
p6055
aS'jpg/image_00587'
p6056
aS'jpg/image_00596'
p6057
aS'jpg/image_07928'
p6058
aS'jpg/image_04631'
p6059
aS'jpg/image_02797'
p6060
aS'jpg/image_02636'
p6061
aS'jpg/image_01686'
p6062
aS'jpg/image_00268'
p6063
aS'jpg/image_04496'
p6064
aS'jpg/image_02572'
p6065
aS'jpg/image_05357'
p6066
aS'jpg/image_00808'
p6067
aS'jpg/image_00294'
p6068
aS'jpg/image_05885'
p6069
aS'jpg/image_08120'
p6070
aS'jpg/image_05926'
p6071
aS'jpg/image_03184'
p6072
aS'jpg/image_03561'
p6073
aS'jpg/image_02801'
p6074
aS'jpg/image_04123'
p6075
aS'jpg/image_01401'
p6076
aS'jpg/image_06863'
p6077
aS'jpg/image_04334'
p6078
aS'jpg/image_01486'
p6079
aS'jpg/image_04114'
p6080
aS'jpg/image_07982'
p6081
aS'jpg/image_01552'
p6082
aS'jpg/image_00002'
p6083
aS'jpg/image_03283'
p6084
aS'jpg/image_07776'
p6085
aS'jpg/image_01720'
p6086
aS'jpg/image_05524'
p6087
aS'jpg/image_04104'
p6088
aS'jpg/image_00153'
p6089
aS'jpg/image_07014'
p6090
aS'jpg/image_01056'
p6091
aS'jpg/image_00506'
p6092
aS'jpg/image_01100'
p6093
aS'jpg/image_03230'
p6094
aS'jpg/image_00416'
p6095
aS'jpg/image_05873'
p6096
aS'jpg/image_06733'
p6097
aS'jpg/image_00951'
p6098
aS'jpg/image_01415'
p6099
aS'jpg/image_03991'
p6100
aS'jpg/image_02483'
p6101
aS'jpg/image_07629'
p6102
aS'jpg/image_06999'
p6103
aS'jpg/image_01719'
p6104
aS'jpg/image_01365'
p6105
aS'jpg/image_03619'
p6106
aS'jpg/image_06480'
p6107
aS'jpg/image_00348'
p6108
aS'jpg/image_06298'
p6109
aS'jpg/image_02761'
p6110
aS'jpg/image_00727'
p6111
aS'jpg/image_03702'
p6112
aS'jpg/image_07346'
p6113
aS'jpg/image_02265'
p6114
aS'jpg/image_06556'
p6115
aS'jpg/image_02329'
p6116
aS'jpg/image_07635'
p6117
aS'jpg/image_00846'
p6118
aS'jpg/image_01095'
p6119
aS'jpg/image_05900'
p6120
aS'jpg/image_03458'
p6121
aS'jpg/image_02208'
p6122
aS'jpg/image_00582'
p6123
aS'jpg/image_02938'
p6124
aS'jpg/image_07414'
p6125
aS'jpg/image_02736'
p6126
aS'jpg/image_02129'
p6127
aS'jpg/image_07375'
p6128
aS'jpg/image_07889'
p6129
aS'jpg/image_00866'
p6130
aS'jpg/image_05822'
p6131
aS'jpg/image_02693'
p6132
aS'jpg/image_01312'
p6133
aS'jpg/image_02511'
p6134
aS'jpg/image_00501'
p6135
aS'jpg/image_02723'
p6136
aS'jpg/image_03521'
p6137
aS'jpg/image_04576'
p6138
aS'jpg/image_02502'
p6139
aS'jpg/image_08189'
p6140
aS'jpg/image_03435'
p6141
aS'jpg/image_04890'
p6142
aS'jpg/image_07763'
p6143
aS'jpg/image_03794'
p6144
aS'jpg/image_03219'
p6145
aS'jpg/image_08027'
p6146
aS'jpg/image_03094'
p6147
aS'jpg/image_00221'
p6148
aS'jpg/image_01581'
p6149
aS'jpg/image_00675'
p6150
aS'jpg/image_03248'
p6151
aS'jpg/image_00323'
p6152
aS'jpg/image_05052'
p6153
aS'jpg/image_04440'
p6154
aS'jpg/image_00234'
p6155
aS'jpg/image_07499'
p6156
aS'jpg/image_00932'
p6157
aS'jpg/image_02368'
p6158
aS'jpg/image_05451'
p6159
aS'jpg/image_05300'
p6160
aS'jpg/image_05602'
p6161
aS'jpg/image_00315'
p6162
aS'jpg/image_01620'
p6163
aS'jpg/image_01118'
p6164
aS'jpg/image_02205'
p6165
aS'jpg/image_06732'
p6166
aS'jpg/image_07863'
p6167
aS'jpg/image_06013'
p6168
aS'jpg/image_03235'
p6169
aS'jpg/image_02314'
p6170
aS'jpg/image_04472'
p6171
aS'jpg/image_02425'
p6172
aS'jpg/image_07918'
p6173
aS'jpg/image_04638'
p6174
aS'jpg/image_01726'
p6175
aS'jpg/image_02448'
p6176
aS'jpg/image_01206'
p6177
aS'jpg/image_00592'
p6178
aS'jpg/image_07398'
p6179
aS'jpg/image_06588'
p6180
aS'jpg/image_03546'
p6181
aS'jpg/image_00512'
p6182
aS'jpg/image_07838'
p6183
aS'jpg/image_06296'
p6184
aS'jpg/image_02014'
p6185
aS'jpg/image_00061'
p6186
aS'jpg/image_00080'
p6187
aS'jpg/image_03657'
p6188
aS'jpg/image_07061'
p6189
aS'jpg/image_07455'
p6190
aS'jpg/image_06542'
p6191
aS'jpg/image_02582'
p6192
aS'jpg/image_02563'
p6193
aS'jpg/image_01542'
p6194
aS'jpg/image_05020'
p6195
aS'jpg/image_05348'
p6196
aS'jpg/image_04738'
p6197
aS'jpg/image_01846'
p6198
aS'jpg/image_06488'
p6199
aS'jpg/image_05565'
p6200
aS'jpg/image_00280'
p6201
aS'jpg/image_04590'
p6202
aS'jpg/image_03375'
p6203
aS'jpg/image_03570'
p6204
aS'jpg/image_00704'
p6205
aS'jpg/image_03091'
p6206
aS'jpg/image_04765'
p6207
aS'jpg/image_03272'
p6208
aS'jpg/image_04643'
p6209
aS'jpg/image_06513'
p6210
aS'jpg/image_03792'
p6211
aS'jpg/image_00812'
p6212
aS'jpg/image_04697'
p6213
aS'jpg/image_04672'
p6214
aS'jpg/image_01337'
p6215
aS'jpg/image_03012'
p6216
aS'jpg/image_07133'
p6217
aS'jpg/image_06991'
p6218
aS'jpg/image_07843'
p6219
aS'jpg/image_07632'
p6220
aS'jpg/image_00358'
p6221
aS'jpg/image_01580'
p6222
aS'jpg/image_05312'
p6223
aS'jpg/image_05555'
p6224
aS'jpg/image_07709'
p6225
aS'jpg/image_07587'
p6226
aS'jpg/image_05272'
p6227
aS'jpg/image_03922'
p6228
aS'jpg/image_02487'
p6229
aS'jpg/image_02541'
p6230
aS'jpg/image_07919'
p6231
aS'jpg/image_01266'
p6232
aS'jpg/image_02369'
p6233
aS'jpg/image_05365'
p6234
aS'jpg/image_01874'
p6235
aS'jpg/image_05445'
p6236
aS'jpg/image_00008'
p6237
aS'jpg/image_03630'
p6238
aS'jpg/image_05725'
p6239
aS'jpg/image_08148'
p6240
aS'jpg/image_03263'
p6241
aS'jpg/image_01830'
p6242
aS'jpg/image_08048'
p6243
aS'jpg/image_04111'
p6244
aS'jpg/image_03477'
p6245
aS'jpg/image_04343'
p6246
aS'jpg/image_03613'
p6247
aS'jpg/image_01078'
p6248
aS'jpg/image_07772'
p6249
aS'jpg/image_04135'
p6250
aS'jpg/image_06018'
p6251
aS'jpg/image_01207'
p6252
aS'jpg/image_05540'
p6253
aS'jpg/image_01619'
p6254
aS'jpg/image_01500'
p6255
aS'jpg/image_06789'
p6256
aS'jpg/image_07961'
p6257
aS'jpg/image_06586'
p6258
aS'jpg/image_05412'
p6259
aS'jpg/image_07644'
p6260
aS'jpg/image_07399'
p6261
aS'jpg/image_07299'
p6262
aS'jpg/image_03966'
p6263
aS'jpg/image_00527'
p6264
aS'jpg/image_01272'
p6265
aS'jpg/image_05405'
p6266
aS'jpg/image_00468'
p6267
aS'jpg/image_07958'
p6268
aS'jpg/image_03782'
p6269
aS'jpg/image_02623'
p6270
aS'jpg/image_07042'
p6271
aS'jpg/image_08173'
p6272
aS'jpg/image_07260'
p6273
aS'jpg/image_01812'
p6274
aS'jpg/image_04221'
p6275
aS'jpg/image_02922'
p6276
aS'jpg/image_06208'
p6277
aS'jpg/image_01895'
p6278
aS'jpg/image_04475'
p6279
aS'jpg/image_07469'
p6280
aS'jpg/image_01237'
p6281
aS'jpg/image_04826'
p6282
aS'jpg/image_00823'
p6283
aS'jpg/image_01175'
p6284
aS'jpg/image_00746'
p6285
aS'jpg/image_05950'
p6286
aS'jpg/image_07708'
p6287
aS'jpg/image_06302'
p6288
aS'jpg/image_00832'
p6289
aS'jpg/image_07970'
p6290
aS'jpg/image_01532'
p6291
aS'jpg/image_04423'
p6292
aS'jpg/image_02899'
p6293
aS'jpg/image_01464'
p6294
aS'jpg/image_01026'
p6295
aS'jpg/image_05035'
p6296
aS'jpg/image_03444'
p6297
aS'jpg/image_02158'
p6298
aS'jpg/image_00223'
p6299
aS'jpg/image_02837'
p6300
aS'jpg/image_01453'
p6301
aS'jpg/image_02664'
p6302
aS'jpg/image_00687'
p6303
aS'jpg/image_06979'
p6304
aS'jpg/image_05543'
p6305
aS'jpg/image_03041'
p6306
aS'jpg/image_04487'
p6307
aS'jpg/image_03221'
p6308
aS'jpg/image_07716'
p6309
aS'jpg/image_03566'
p6310
aS'jpg/image_06328'
p6311
aS'jpg/image_02186'
p6312
aS'jpg/image_06292'
p6313
aS'jpg/image_00703'
p6314
aS'jpg/image_05392'
p6315
aS'jpg/image_04410'
p6316
aS'jpg/image_04352'
p6317
aS'jpg/image_00422'
p6318
aS'jpg/image_02545'
p6319
aS'jpg/image_06127'
p6320
aS'jpg/image_06514'
p6321
aS'jpg/image_01484'
p6322
aS'jpg/image_07450'
p6323
aS'jpg/image_03749'
p6324
aS'jpg/image_00574'
p6325
aS'jpg/image_07680'
p6326
aS'jpg/image_07749'
p6327
aS'jpg/image_05224'
p6328
aS'jpg/image_05330'
p6329
aS'jpg/image_02012'
p6330
aS'jpg/image_07926'
p6331
aS'jpg/image_08139'
p6332
aS'jpg/image_00858'
p6333
aS'jpg/image_01748'
p6334
aS'jpg/image_05292'
p6335
aS'jpg/image_02436'
p6336
aS'jpg/image_04670'
p6337
aS'jpg/image_02264'
p6338
aS'jpg/image_02844'
p6339
aS'jpg/image_04519'
p6340
aS'jpg/image_04876'
p6341
aS'jpg/image_03557'
p6342
aS'jpg/image_02231'
p6343
aS'jpg/image_04151'
p6344
aS'jpg/image_07458'
p6345
aS'jpg/image_03628'
p6346
aS'jpg/image_02378'
p6347
aS'jpg/image_00566'
p6348
aS'jpg/image_05869'
p6349
aS'jpg/image_02493'
p6350
aS'jpg/image_02146'
p6351
aS'jpg/image_03038'
p6352
aS'jpg/image_00041'
p6353
aS'jpg/image_00679'
p6354
aS'jpg/image_07582'
p6355
aS'jpg/image_04787'
p6356
aS'jpg/image_01879'
p6357
aS'jpg/image_00599'
p6358
aS'jpg/image_03195'
p6359
aS'jpg/image_00374'
p6360
aS'jpg/image_05588'
p6361
aS'jpg/image_06603'
p6362
aS'jpg/image_07259'
p6363
aS'jpg/image_02381'
p6364
aS'jpg/image_01688'
p6365
aS'jpg/image_03554'
p6366
aS'jpg/image_05384'
p6367
aS'jpg/image_05396'
p6368
aS'jpg/image_02634'
p6369
aS'jpg/image_06303'
p6370
aS'jpg/image_08151'
p6371
aS'jpg/image_07966'
p6372
aS'jpg/image_06952'
p6373
aS'jpg/image_07553'
p6374
aS'jpg/image_02362'
p6375
aS'jpg/image_03523'
p6376
aS'jpg/image_06596'
p6377
aS'jpg/image_07407'
p6378
aS'jpg/image_01611'
p6379
aS'jpg/image_07473'
p6380
aS'jpg/image_00639'
p6381
aS'jpg/image_03240'
p6382
aS'jpg/image_03512'
p6383
aS'jpg/image_00915'
p6384
aS'jpg/image_02429'
p6385
aS'jpg/image_03778'
p6386
aS'jpg/image_00656'
p6387
aS'jpg/image_02849'
p6388
aS'jpg/image_03484'
p6389
aS'jpg/image_02057'
p6390
aS'jpg/image_00444'
p6391
aS'jpg/image_00474'
p6392
aS'jpg/image_01228'
p6393
aS'jpg/image_00012'
p6394
aS'jpg/image_01201'
p6395
aS'jpg/image_02352'
p6396
aS'jpg/image_07004'
p6397
aS'jpg/image_07020'
p6398
aS'jpg/image_05287'
p6399
aS'jpg/image_05481'
p6400
aS'jpg/image_02613'
p6401
aS'jpg/image_07854'
p6402
aS'jpg/image_02211'
p6403
aS'jpg/image_01994'
p6404
aS'jpg/image_02756'
p6405
aS'jpg/image_02627'
p6406
aS'jpg/image_00317'
p6407
aS'jpg/image_08028'
p6408
aS'jpg/image_04689'
p6409
aS'jpg/image_06247'
p6410
aS'jpg/image_01434'
p6411
aS'jpg/image_01021'
p6412
aS'jpg/image_06725'
p6413
aS'jpg/image_05549'
p6414
aS'jpg/image_00690'
p6415
aS'jpg/image_01819'
p6416
aS'jpg/image_04533'
p6417
aS'jpg/image_00580'
p6418
aS'jpg/image_02965'
p6419
aS'jpg/image_06241'
p6420
aS'jpg/image_02063'
p6421
aS'jpg/image_07906'
p6422
aS'jpg/image_05485'
p6423
aS'jpg/image_07711'
p6424
aS'jpg/image_04579'
p6425
aS'jpg/image_03932'
p6426
aS'jpg/image_00398'
p6427
aS'jpg/image_05333'
p6428
aS'jpg/image_03629'
p6429
aS'jpg/image_04830'
p6430
aS'jpg/image_02029'
p6431
aS'jpg/image_03071'
p6432
aS'jpg/image_01957'
p6433
aS'jpg/image_03713'
p6434
aS'jpg/image_00106'
p6435
aS'jpg/image_00243'
p6436
aS'jpg/image_07999'
p6437
aS'jpg/image_04662'
p6438
aS'jpg/image_04179'
p6439
aS'jpg/image_03064'
p6440
aS'jpg/image_04359'
p6441
aS'jpg/image_02282'
p6442
aS'jpg/image_08046'
p6443
aS'jpg/image_03088'
p6444
aS'jpg/image_05213'
p6445
aS'jpg/image_05347'
p6446
aS'jpg/image_06959'
p6447
aS'jpg/image_01610'
p6448
aS'jpg/image_07510'
p6449
aS'jpg/image_01243'
p6450
aS'jpg/image_00066'
p6451
aS'jpg/image_05580'
p6452
aS'jpg/image_01711'
p6453
aS'jpg/image_04961'
p6454
aS'jpg/image_00680'
p6455
aS'jpg/image_05616'
p6456
aS'jpg/image_04974'
p6457
aS'jpg/image_00434'
p6458
aS'jpg/image_07822'
p6459
aS'jpg/image_02359'
p6460
aS'jpg/image_06942'
p6461
aS'jpg/image_00099'
p6462
aS'jpg/image_03650'
p6463
aS'jpg/image_02467'
p6464
aS'jpg/image_07365'
p6465
aS'jpg/image_05966'
p6466
aS'jpg/image_05002'
p6467
aS'jpg/image_04219'
p6468
aS'jpg/image_02827'
p6469
aS'jpg/image_06495'
p6470
aS'jpg/image_01208'
p6471
aS'jpg/image_04798'
p6472
aS'jpg/image_01606'
p6473
aS'jpg/image_04398'
p6474
aS'jpg/image_04688'
p6475
aS'jpg/image_01995'
p6476
aS'jpg/image_00134'
p6477
aS'jpg/image_06607'
p6478
aS'jpg/image_00715'
p6479
aS'jpg/image_01825'
p6480
aS'jpg/image_00173'
p6481
aS'jpg/image_01275'
p6482
aS'jpg/image_05060'
p6483
aS'jpg/image_01129'
p6484
aS'jpg/image_01921'
p6485
aS'jpg/image_01319'
p6486
aS'jpg/image_03511'
p6487
aS'jpg/image_03662'
p6488
aS'jpg/image_01818'
p6489
aS'jpg/image_01561'
p6490
aS'jpg/image_07533'
p6491
aS'jpg/image_04863'
p6492
aS'jpg/image_01123'
p6493
aS'jpg/image_03093'
p6494
aS'jpg/image_08116'
p6495
aS'jpg/image_06851'
p6496
aS'jpg/image_05387'
p6497
aS'jpg/image_01082'
p6498
aS'jpg/image_00944'
p6499
aS'jpg/image_00814'
p6500
aS'jpg/image_06305'
p6501
aS'jpg/image_08171'
p6502
aS'jpg/image_05288'
p6503
aS'jpg/image_07827'
p6504
aS'jpg/image_04705'
p6505
aS'jpg/image_02028'
p6506
aS'jpg/image_02575'
p6507
aS'jpg/image_04402'
p6508
aS'jpg/image_00671'
p6509
aS'jpg/image_02972'
p6510
aS'jpg/image_00646'
p6511
aS'jpg/image_04421'
p6512
aS'jpg/image_06832'
p6513
aS'jpg/image_00664'
p6514
aS'jpg/image_07477'
p6515
aS'jpg/image_07287'
p6516
aS'jpg/image_01795'
p6517
aS'jpg/image_03461'
p6518
aS'jpg/image_04452'
p6519
aS'jpg/image_03555'
p6520
aS'jpg/image_01432'
p6521
aS'jpg/image_07692'
p6522
aS'jpg/image_03415'
p6523
aS'jpg/image_07021'
p6524
aS'jpg/image_02373'
p6525
aS'jpg/image_02093'
p6526
aS'jpg/image_02653'
p6527
aS'jpg/image_07064'
p6528
aS'jpg/image_00432'
p6529
aS'jpg/image_04566'
p6530
aS'jpg/image_04155'
p6531
aS'jpg/image_00698'
p6532
aS'jpg/image_01248'
p6533
aS'jpg/image_00755'
p6534
aS'jpg/image_00736'
p6535
aS'jpg/image_01379'
p6536
aS'jpg/image_00472'
p6537
aS'jpg/image_01723'
p6538
aS'jpg/image_02217'
p6539
aS'jpg/image_02445'
p6540
aS'jpg/image_01836'
p6541
aS'jpg/image_07388'
p6542
aS'jpg/image_05907'
p6543
aS'jpg/image_05866'
p6544
aS'jpg/image_02936'
p6545
aS'jpg/image_00252'
p6546
aS'jpg/image_06988'
p6547
aS'jpg/image_00921'
p6548
aS'jpg/image_07513'
p6549
aS'jpg/image_03933'
p6550
aS'jpg/image_06544'
p6551
aS'jpg/image_02437'
p6552
aS'jpg/image_02788'
p6553
aS'jpg/image_04888'
p6554
aS'jpg/image_07380'
p6555
aS'jpg/image_02145'
p6556
aS'jpg/image_07929'
p6557
aS'jpg/image_01186'
p6558
aS'jpg/image_06699'
p6559
aS'jpg/image_01788'
p6560
aS'jpg/image_07676'
p6561
aS'jpg/image_03441'
p6562
aS'jpg/image_04896'
p6563
aS'jpg/image_05033'
p6564
aS'jpg/image_05018'
p6565
aS'jpg/image_02991'
p6566
aS'jpg/image_00069'
p6567
aS'jpg/image_03592'
p6568
aS'jpg/image_02689'
p6569
aS'jpg/image_01772'
p6570
aS'jpg/image_04887'
p6571
aS'jpg/image_01722'
p6572
aS'jpg/image_04558'
p6573
aS'jpg/image_01809'
p6574
aS'jpg/image_05618'
p6575
aS'jpg/image_00073'
p6576
aS'jpg/image_03787'
p6577
aS'jpg/image_00876'
p6578
aS'jpg/image_05813'
p6579
aS'jpg/image_04711'
p6580
aS'jpg/image_05997'
p6581
aS'jpg/image_06129'
p6582
aS'jpg/image_00469'
p6583
aS'jpg/image_01852'
p6584
aS'jpg/image_05036'
p6585
aS'jpg/image_01616'
p6586
aS'jpg/image_07280'
p6587
aS'jpg/image_03520'
p6588
aS'jpg/image_07310'
p6589
aS'jpg/image_00269'
p6590
aS'jpg/image_06461'
p6591
aS'jpg/image_04211'
p6592
aS'jpg/image_04651'
p6593
aS'jpg/image_01758'
p6594
aS'jpg/image_07937'
p6595
aS'jpg/image_08167'
p6596
aS'jpg/image_05214'
p6597
aS'jpg/image_01671'
p6598
aS'jpg/image_07593'
p6599
aS'jpg/image_03253'
p6600
aS'jpg/image_02805'
p6601
aS'jpg/image_00230'
p6602
aS'jpg/image_02642'
p6603
aS'jpg/image_06215'
p6604
aS'jpg/image_02760'
p6605
aS'jpg/image_01517'
p6606
aS'jpg/image_01124'
p6607
aS'jpg/image_06336'
p6608
aS'jpg/image_02319'
p6609
aS'jpg/image_04744'
p6610
aS'jpg/image_00975'
p6611
aS'jpg/image_04454'
p6612
aS'jpg/image_04839'
p6613
aS'jpg/image_03470'
p6614
aS'jpg/image_05615'
p6615
aS'jpg/image_05867'
p6616
aS'jpg/image_03234'
p6617
aS'jpg/image_00199'
p6618
aS'jpg/image_04093'
p6619
aS'jpg/image_01331'
p6620
aS'jpg/image_05043'
p6621
aS'jpg/image_05689'
p6622
aS'jpg/image_00460'
p6623
aS'jpg/image_00847'
p6624
aS'jpg/image_07452'
p6625
aS'jpg/image_00500'
p6626
aS'jpg/image_03422'
p6627
aS'jpg/image_04574'
p6628
aS'jpg/image_04517'
p6629
aS'jpg/image_03744'
p6630
aS'jpg/image_06604'
p6631
aS'jpg/image_03678'
p6632
aS'jpg/image_07390'
p6633
aS'jpg/image_01053'
p6634
aS'jpg/image_01543'
p6635
aS'jpg/image_00611'
p6636
aS'jpg/image_05370'
p6637
aS'jpg/image_08170'
p6638
aS'jpg/image_05080'
p6639
aS'jpg/image_01773'
p6640
aS'jpg/image_05857'
p6641
aS'jpg/image_04764'
p6642
aS'jpg/image_06112'
p6643
aS'jpg/image_06503'
p6644
aS'jpg/image_00363'
p6645
aS'jpg/image_00677'
p6646
aS'jpg/image_07581'
p6647
aS'jpg/image_07308'
p6648
aS'jpg/image_07476'
p6649
aS'jpg/image_00943'
p6650
aS'jpg/image_02794'
p6651
aS'jpg/image_07413'
p6652
aS'jpg/image_05434'
p6653
aS'jpg/image_01355'
p6654
aS'jpg/image_02419'
p6655
aS'jpg/image_06827'
p6656
aS'jpg/image_02328'
p6657
aS'jpg/image_02928'
p6658
aS'jpg/image_01285'
p6659
aS'jpg/image_01650'
p6660
aS'jpg/image_03483'
p6661
aS'jpg/image_04435'
p6662
aS'jpg/image_01670'
p6663
aS'jpg/image_00443'
p6664
aS'jpg/image_01349'
p6665
aS'jpg/image_04561'
p6666
aS'jpg/image_02618'
p6667
aS'jpg/image_00324'
p6668
aS'jpg/image_03727'
p6669
aS'jpg/image_04646'
p6670
aS'jpg/image_07074'
p6671
aS'jpg/image_04427'
p6672
aS'jpg/image_07646'
p6673
aS'jpg/image_05011'
p6674
aS'jpg/image_03571'
p6675
aS'jpg/image_08075'
p6676
aS'jpg/image_01959'
p6677
aS'jpg/image_08175'
p6678
aS'jpg/image_01055'
p6679
aS'jpg/image_02213'
p6680
aS'jpg/image_07374'
p6681
aS'jpg/image_00801'
p6682
aS'jpg/image_06602'
p6683
aS'jpg/image_07909'
p6684
aS'jpg/image_00302'
p6685
aS'jpg/image_02962'
p6686
aS'jpg/image_04687'
p6687
aS'jpg/image_07871'
p6688
aS'jpg/image_07043'
p6689
aS'jpg/image_07660'
p6690
aS'jpg/image_07798'
p6691
aS'jpg/image_03278'
p6692
aS'jpg/image_02851'
p6693
aS'jpg/image_00237'
p6694
aS'jpg/image_06599'
p6695
aS'jpg/image_07288'
p6696
aS'jpg/image_04696'
p6697
aS'jpg/image_02343'
p6698
aS'jpg/image_03576'
p6699
aS'jpg/image_03013'
p6700
aS'jpg/image_06949'
p6701
aS'jpg/image_07862'
p6702
aS'jpg/image_07694'
p6703
aS'jpg/image_01039'
p6704
aS'jpg/image_00108'
p6705
aS'jpg/image_05053'
p6706
aS'jpg/image_04463'
p6707
aS'jpg/image_06552'
p6708
aS'jpg/image_04797'
p6709
aS'jpg/image_01385'
p6710
aS'jpg/image_01875'
p6711
aS'jpg/image_07360'
p6712
aS'jpg/image_02791'
p6713
aS'jpg/image_04802'
p6714
aS'jpg/image_06892'
p6715
aS'jpg/image_06858'
p6716
aS'jpg/image_02210'
p6717
aS'jpg/image_00191'
p6718
aS'jpg/image_03403'
p6719
aS'jpg/image_07379'
p6720
aS'jpg/image_01338'
p6721
aS'jpg/image_02815'
p6722
aS'jpg/image_00224'
p6723
aS'jpg/image_07902'
p6724
aS'jpg/image_02535'
p6725
aS'jpg/image_05349'
p6726
aS'jpg/image_03649'
p6727
aS'jpg/image_04995'
p6728
aS'jpg/image_02742'
p6729
aS'jpg/image_00532'
p6730
aS'jpg/image_07730'
p6731
aS'jpg/image_06489'
p6732
aS'jpg/image_02998'
p6733
aS'jpg/image_07803'
p6734
aS'jpg/image_05848'
p6735
aS'jpg/image_01730'
p6736
aS'jpg/image_05861'
p6737
aS'jpg/image_05935'
p6738
aS'jpg/image_05529'
p6739
aS'jpg/image_02776'
p6740
aS'jpg/image_07755'
p6741
aS'jpg/image_02836'
p6742
aS'jpg/image_00429'
p6743
aS'jpg/image_02953'
p6744
aS'jpg/image_00334'
p6745
aS'jpg/image_03637'
p6746
aS'jpg/image_03532'
p6747
aS'jpg/image_07684'
p6748
aS'jpg/image_03455'
p6749
aS'jpg/image_06563'
p6750
aS'jpg/image_07633'
p6751
aS'jpg/image_04879'
p6752
aS'jpg/image_00549'
p6753
aS'jpg/image_07467'
p6754
aS'jpg/image_02989'
p6755
aS'jpg/image_02192'
p6756
aS'jpg/image_07023'
p6757
aS'jpg/image_06024'
p6758
aS'jpg/image_08056'
p6759
aS'jpg/image_07762'
p6760
aS'jpg/image_01975'
p6761
aS'jpg/image_01775'
p6762
aS'jpg/image_07289'
p6763
aS'jpg/image_06147'
p6764
aS'jpg/image_00526'
p6765
aS'jpg/image_02495'
p6766
aS'jpg/image_06598'
p6767
aS'jpg/image_06573'
p6768
aS'jpg/image_08062'
p6769
aS'jpg/image_05377'
p6770
aS'jpg/image_03720'
p6771
aS'jpg/image_00298'
p6772
aS'jpg/image_05737'
p6773
aS'jpg/image_03590'
p6774
aS'jpg/image_02585'
p6775
aS'jpg/image_02665'
p6776
aS'jpg/image_01908'
p6777
aS'jpg/image_06251'
p6778
aS'jpg/image_05695'
p6779
aS'jpg/image_04740'
p6780
aS'jpg/image_06961'
p6781
aS'jpg/image_02249'
p6782
aS'jpg/image_04202'
p6783
aS'jpg/image_04473'
p6784
aS'jpg/image_04721'
p6785
aS'jpg/image_04766'
p6786
aS'jpg/image_07916'
p6787
aS'jpg/image_02549'
p6788
aS'jpg/image_00442'
p6789
aS'jpg/image_07271'
p6790
aS'jpg/image_04480'
p6791
aS'jpg/image_06126'
p6792
aS'jpg/image_01639'
p6793
aS'jpg/image_00723'
p6794
aS'jpg/image_00037'
p6795
aS'jpg/image_03392'
p6796
aS'jpg/image_01339'
p6797
aS'jpg/image_04384'
p6798
aS'jpg/image_00638'
p6799
aS'jpg/image_08026'
p6800
aS'jpg/image_02934'
p6801
aS'jpg/image_04474'
p6802
aS'jpg/image_02008'
p6803
aS'jpg/image_03007'
p6804
aS'jpg/image_06543'
p6805
aS'jpg/image_02963'
p6806
aS'jpg/image_01174'
p6807
aS'jpg/image_01978'
p6808
aS'jpg/image_01200'
p6809
aS'jpg/image_05283'
p6810
aS'jpg/image_02479'
p6811
aS'jpg/image_07908'
p6812
aS'jpg/image_06281'
p6813
aS'jpg/image_05868'
p6814
aS'jpg/image_06895'
p6815
aS'jpg/image_00186'
p6816
aS'jpg/image_06035'
p6817
aS'jpg/image_00620'
p6818
aS'jpg/image_06446'
p6819
aS'jpg/image_00623'
p6820
aS'jpg/image_05883'
p6821
aS'jpg/image_04628'
p6822
aS'jpg/image_08081'
p6823
aS'jpg/image_05420'
p6824
aS'jpg/image_00806'
p6825
aS'jpg/image_07007'
p6826
aS'jpg/image_02010'
p6827
aS'jpg/image_07364'
p6828
aS'jpg/image_00612'
p6829
aS'jpg/image_05293'
p6830
aS'jpg/image_00499'
p6831
aS'jpg/image_07875'
p6832
aS'jpg/image_04992'
p6833
aS'jpg/image_01070'
p6834
aS'jpg/image_00674'
p6835
aS'jpg/image_07502'
p6836
aS'jpg/image_06874'
p6837
aS'jpg/image_07027'
p6838
aS'jpg/image_06787'
p6839
aS'jpg/image_01340'
p6840
aS'jpg/image_01519'
p6841
aS'jpg/image_00702'
p6842
aS'jpg/image_07707'
p6843
aS'jpg/image_04337'
p6844
aS'jpg/image_04865'
p6845
aS'jpg/image_02142'
p6846
aS'jpg/image_03039'
p6847
aS'jpg/image_02981'
p6848
aS'jpg/image_01006'
p6849
aS'jpg/image_00155'
p6850
aS'jpg/image_00017'
p6851
aS'jpg/image_07683'
p6852
aS'jpg/image_00110'
p6853
aS'jpg/image_07309'
p6854
aS'jpg/image_03060'
p6855
aS'jpg/image_00015'
p6856
aS'jpg/image_05401'
p6857
aS'jpg/image_07254'
p6858
aS'jpg/image_01197'
p6859
aS'jpg/image_01746'
p6860
aS'jpg/image_04168'
p6861
aS'jpg/image_00103'
p6862
aS'jpg/image_04210'
p6863
aS'jpg/image_03535'
p6864
aS'jpg/image_00999'
p6865
aS'jpg/image_04828'
p6866
aS'jpg/image_07669'
p6867
aS'jpg/image_02600'
p6868
aS'jpg/image_07451'
p6869
aS'jpg/image_05828'
p6870
aS'jpg/image_07136'
p6871
aS'jpg/image_00572'
p6872
aS'jpg/image_04086'
p6873
aS'jpg/image_07311'
p6874
aS'jpg/image_01881'
p6875
aS'jpg/image_01435'
p6876
aS'jpg/image_03527'
p6877
aS'jpg/image_00636'
p6878
aS'jpg/image_07345'
p6879
aS'jpg/image_07409'
p6880
aS'jpg/image_04344'
p6881
aS'jpg/image_02832'
p6882
aS'jpg/image_03600'
p6883
aS'jpg/image_07967'
p6884
aS'jpg/image_06343'
p6885
aS'jpg/image_07766'
p6886
aS'jpg/image_01054'
p6887
aS'jpg/image_07128'
p6888
aS'jpg/image_03737'
p6889
aS'jpg/image_01418'
p6890
aS'jpg/image_01239'
p6891
aS'jpg/image_00045'
p6892
aS'jpg/image_00678'
p6893
aS'jpg/image_05059'
p6894
aS'jpg/image_01956'
p6895
aS'jpg/image_00606'
p6896
aS'jpg/image_06595'
p6897
aS'jpg/image_07641'
p6898
aS'jpg/image_03495'
p6899
aS'jpg/image_05528'
p6900
aS'jpg/image_07853'
p6901
aS'jpg/image_01522'
p6902
aS'jpg/image_01133'
p6903
aS'jpg/image_07998'
p6904
aS'jpg/image_03753'
p6905
aS'jpg/image_04959'
p6906
aS'jpg/image_07307'
p6907
aS'jpg/image_00652'
p6908
aS'jpg/image_00282'
p6909
aS'jpg/image_08023'
p6910
aS'jpg/image_03396'
p6911
aS'jpg/image_05947'
p6912
aS'jpg/image_00521'
p6913
aS'jpg/image_07338'
p6914
aS'jpg/image_00893'
p6915
aS'jpg/image_01294'
p6916
aS'jpg/image_06304'
p6917
aS'jpg/image_02061'
p6918
aS'jpg/image_00721'
p6919
aS'jpg/image_03928'
p6920
aS'jpg/image_02576'
p6921
aS'jpg/image_02869'
p6922
aS'jpg/image_00196'
p6923
aS'jpg/image_00825'
p6924
aS'jpg/image_02407'
p6925
aS'jpg/image_07690'
p6926
aS'jpg/image_01793'
p6927
aS'jpg/image_03982'
p6928
aS'jpg/image_05692'
p6929
aS'jpg/image_01966'
p6930
aS'jpg/image_02156'
p6931
aS'jpg/image_01843'
p6932
aS'jpg/image_07911'
p6933
aS'jpg/image_07994'
p6934
aS'jpg/image_05491'
p6935
aS'jpg/image_03714'
p6936
aS'jpg/image_07449'
p6937
aS'jpg/image_00998'
p6938
aS'jpg/image_07881'
p6939
aS'jpg/image_02377'
p6940
aS'jpg/image_04762'
p6941
aS'jpg/image_03432'
p6942
aS'jpg/image_02489'
p6943
aS'jpg/image_04645'
p6944
aS'jpg/image_00222'
p6945
aS'jpg/image_07710'
p6946
aS'jpg/image_08187'
p6947
aS'jpg/image_07022'
p6948
aS'jpg/image_06993'
p6949
aS'jpg/image_04526'
p6950
aS'jpg/image_03618'
p6951
aS'jpg/image_06947'
p6952
aS'jpg/image_06724'
p6953
aS'jpg/image_07344'
p6954
aS'jpg/image_07245'
p6955
aS'jpg/image_06002'
p6956
aS'jpg/image_08072'
p6957
aS'jpg/image_05484'
p6958
aS'jpg/image_05991'
p6959
aS'jpg/image_05264'
p6960
aS'jpg/image_06450'
p6961
aS'jpg/image_04871'
p6962
aS'jpg/image_03067'
p6963
aS'jpg/image_04191'
p6964
aS'jpg/image_04494'
p6965
aS'jpg/image_05975'
p6966
aS'jpg/image_04957'
p6967
aS'jpg/image_05328'
p6968
aS'jpg/image_07650'
p6969
aS'jpg/image_05941'
p6970
aS'jpg/image_01807'
p6971
aS'jpg/image_05510'
p6972
aS'jpg/image_02571'
p6973
aS'jpg/image_03574'
p6974
aS'jpg/image_01302'
p6975
aS'jpg/image_05431'
p6976
aS'jpg/image_05581'
p6977
aS'jpg/image_04456'
p6978
aS'jpg/image_03603'
p6979
aS'jpg/image_03976'
p6980
aS'jpg/image_03578'
p6981
aS'jpg/image_02557'
p6982
aS'jpg/image_04663'
p6983
aS'jpg/image_06198'
p6984
aS'jpg/image_07286'
p6985
aS'jpg/image_05382'
p6986
aS'jpg/image_07352'
p6987
aS'jpg/image_05064'
p6988
aS'jpg/image_07652'
p6989
aS'jpg/image_00626'
p6990
aS'jpg/image_04886'
p6991
aS'jpg/image_07700'
p6992
aS'jpg/image_01648'
p6993
aS'jpg/image_00777'
p6994
aS'jpg/image_05619'
p6995
aS'jpg/image_04756'
p6996
aS'jpg/image_00949'
p6997
aS'jpg/image_04799'
p6998
aS'jpg/image_02085'
p6999
aS'jpg/image_05611'
p7000
aS'jpg/image_07794'
p7001
aS'jpg/image_08088'
p7002
aS'jpg/image_01617'
p7003
aS'jpg/image_00161'
p7004
aS'jpg/image_00741'
p7005
aS'jpg/image_04383'
p7006
aS'jpg/image_04405'
p7007
aS'jpg/image_06934'
p7008
aS'jpg/image_00130'
p7009
aS'jpg/image_00529'
p7010
aS'jpg/image_00955'
p7011
aS'jpg/image_03537'
p7012
aS'jpg/image_05490'
p7013
aS'jpg/image_03279'
p7014
aS'jpg/image_03192'
p7015
aS'jpg/image_01906'
p7016
aS'jpg/image_00987'
p7017
aS'jpg/image_05044'
p7018
aS'jpg/image_04328'
p7019
aS'jpg/image_07657'
p7020
aS'jpg/image_01472'
p7021
aS'jpg/image_00734'
p7022
aS'jpg/image_03391'
p7023
aS'jpg/image_00455'
p7024
aS'jpg/image_05289'
p7025
aS'jpg/image_01153'
p7026
aS'jpg/image_07977'
p7027
aS'jpg/image_05739'
p7028
aS'jpg/image_01859'
p7029
aS'jpg/image_05062'
p7030
aS'jpg/image_00449'
p7031
aS'jpg/image_01274'
p7032
aS'jpg/image_00647'
p7033
aS'jpg/image_05086'
p7034
a.